(dp0
I57349
(lp1
F-122.33054937746653
aF47.601822730001246
aF-122.3308297335514
aF47.602016542002914
asI57350
(lp2
F-122.33703920940967
aF47.60739293914373
aF-122.33784776380698
aF47.608276735127895
asI65545
(lp3
F-122.38248826368554
aF47.66685432171914
aF-122.38324456408156
aF47.66644788552648
asI65546
(lp4
F-122.34981807237811
aF47.65128914080074
aF-122.3492759990202
aF47.651207457528066
asI84653
(lp5
F-122.28547203058527
aF47.61832830090205
aF-122.28552297300519
aF47.61839235399441
asI84654
(lp6
F-122.32063608179352
aF47.60176597416324
aF-122.31958953418004
aF47.60176413002172
asI24605
(lp7
F-122.28677413715486
aF47.537339172528156
aF-122.28634534544571
aF47.53719543269379
asI57377
(lp8
F-122.33179123847515
aF47.615076864500274
aF-122.33219972238858
aF47.6155178684756
asI57382
(lp9
F-122.33587556988306
aF47.59243702203907
aF-122.33562991634886
aF47.592439107600896
asI57386
(lp10
F-122.32887233105725
aF47.59996734246664
aF-122.32767972909481
aF47.59996556328214
asI8242
(lp11
F-122.34175880769405
aF47.61536469097867
aF-122.34293099026537
aF47.61605711065148
asI57353
(lp12
F-122.3553106278605
aF47.62465207332662
aF-122.35419513971979
aF47.62464974441776
asI8249
(lp13
F-122.29873172595678
aF47.69315610713819
aF-122.29868120731604
aF47.6938439524038
asI57354
(lp14
F-122.31829677212005
aF47.65597438912409
aF-122.31816497580192
aF47.6560564809193
asI41030
(lp15
F-122.34051271130478
aF47.62856146360641
aF-122.34073878963589
aF47.62893598324071
asI82014
(lp16
F-122.33645847503509
aF47.5881217212472
aF-122.33512068745306
aF47.58811904125385
asI8301
(lp17
F-122.33035844728357
aF47.61958823396717
aF-122.32939467737145
aF47.61962325558723
asI8302
(lp18
F-122.32751414389368
aF47.60531853294414
aF-122.32649615458595
aF47.60574419491522
asI8305
(lp19
F-122.38161557362488
aF47.56283780523822
aF-122.3816231714966
aF47.561618737047866
asI8306
(lp20
F-122.31560185803781
aF47.61530805601182
aF-122.31561934529427
aF47.616402666681445
asI32909
(lp21
F-122.31799595064709
aF47.612367060126125
aF-122.31801357821566
aF47.612845546094434
asI32910
(lp22
F-122.33258711330636
aF47.60418267156693
aF-122.33164888080016
aF47.60457521452596
asI57513
(lp23
F-122.32641385214498
aF47.61085205912804
aF-122.32696648645394
aF47.61145639393575
asI57517
(lp24
F-122.34050777372872
aF47.638167709406694
aF-122.34102165977339
aF47.639085128109734
asI57518
(lp25
F-122.300296953653
aF47.712087368959764
aF-122.2995679300839
aF47.712080417474354
asI8369
(lp26
F-122.3209227895395
aF47.60986280856564
aF-122.32108722099618
aF47.61004297933733
asI8370
(lp27
F-122.33304367625054
aF47.60300871901701
aF-122.33209519420285
aF47.60340562598435
asI8373
(lp28
F-122.33534967042849
aF47.61222026200828
aF-122.33616047790356
aF47.61310688385382
asI57526
(lp29
F-122.33857342612075
aF47.610722408720925
aF-122.33762534800609
aF47.61111925153784
asI8377
(lp30
F-122.34184419340946
aF47.60997982748174
aF-122.3414858043043
aF47.61026691656686
asI8378
(lp31
F-122.33671238460717
aF47.602460314371015
aF-122.33600468774655
aF47.60275629654366
asI8382
(lp32
F-122.28593011740014
aF47.71922502438457
aF-122.28533031930853
aF47.71924308066561
asI8389
(lp33
F-122.33420058094525
aF47.614061895352805
aF-122.33536103906786
aF47.61490365537859
asI8390
(lp34
F-122.33410020219065
aF47.6141700083012
aF-122.33523033989601
aF47.61498977558848
asI8393
(lp35
F-122.33935795254509
aF47.6172204893084
aF-122.34052625106985
aF47.61791129686799
asI8394
(lp36
F-122.30418223905703
aF47.58612521436908
aF-122.30418378913754
aF47.585537509081924
asI57549
(lp37
F-122.30946417933943
aF47.699449285890935
aF-122.30949652661842
aF47.700283352031875
asI57550
(lp38
F-122.32385718298656
aF47.59573778712951
aF-122.32385967293934
aF47.59502710829888
asI8401
(lp39
F-122.34116857078816
aF47.6232796509688
aF-122.34115738125419
aF47.624533748760925
asI8402
(lp40
F-122.32368168839605
aF47.59910622370829
aF-122.32256627309862
aF47.599104118784346
asI8405
(lp41
F-122.33572762604783
aF47.60931497154655
aF-122.33653584309292
aF47.610198613252166
asI8406
(lp42
F-122.32723676311407
aF47.608376826018066
aF-122.32628710144982
aF47.60877391013862
asI57565
(lp43
F-122.33967926294567
aF47.62093329895682
aF-122.33967148249428
aF47.62198567256919
asI57574
(lp44
F-122.33000602623038
aF47.6016580301983
aF-122.32945323371656
aF47.60140685560876
asI33005
(lp45
F-122.33420900612369
aF47.62507230653793
aF-122.33259206422119
aF47.6250728526006
asI65801
(lp46
F-122.3102445615657
aF47.60623588001936
aF-122.30899804473995
aF47.60623052799731
asI65802
(lp47
F-122.36328308879403
aF47.62589484979279
aF-122.36447971622665
aF47.62589969698446
asI65805
(lp48
F-122.3180257070961
aF47.613012810403795
aF-122.31674583497954
aF47.61297208061146
asI65806
(lp49
F-122.38035253837181
aF47.668755446274055
aF-122.38156578513114
aF47.66875730677462
asI65813
(lp50
F-122.35551854639334
aF47.62098797721525
aF-122.3555097534301
aF47.62205156507317
asI65814
(lp51
F-122.31763642217454
aF47.6531638983641
aF-122.31681354484198
aF47.65258795332208
asI65817
(lp52
F-122.33585145203226
aF47.597039458000644
aF-122.33585394507486
aF47.594346895663655
asI65818
(lp53
F-122.32239150538717
aF47.599098231181216
aF-122.32108134927662
aF47.59910243667778
asI74025
(lp54
F-122.32500883200107
aF47.60931508378066
aF-122.32406000793682
aF47.609711906235475
asI74026
(lp55
F-122.3167152624975
aF47.61417031761234
aF-122.3167315487622
aF47.6152018784753
asI74029
(lp56
F-122.29454555984861
aF47.72293507071348
aF-122.29454498107349
aF47.72466556419717
asI74030
(lp57
F-122.34131629295952
aF47.61393776011667
aF-122.34247404040694
aF47.61462230543693
asI74033
(lp58
F-122.32646425445624
aF47.59505170959887
aF-122.32620623540758
aF47.59492069509729
asI74034
(lp59
F-122.30640441650738
aF47.601709392627484
aF-122.30640244700841
aF47.602635275871236
asI30094
(lp60
F-122.35039761270497
aF47.614579463076836
aF-122.34960974711204
aF47.61518825263276
asI8541
(lp61
F-122.33371729949944
aF47.616276211930554
aF-122.33489538599679
aF47.616972920273405
asI8542
(lp62
F-122.32922373255548
aF47.59410183070731
aF-122.32922296723507
aF47.59246001940697
asI33142
(lp63
F-122.39394638279242
aF47.51965743110615
aF-122.39402456115495
aF47.51961068722224
asI33145
(lp64
F-122.35137464261648
aF47.64565006815952
aF-122.3514048731208
aF47.646845666358146
asI33146
(lp65
F-122.33156150651472
aF47.61615506305402
aF-122.33272014333922
aF47.6168439054805
asI1433
(lp66
F-122.31643901896044
aF47.66316430686019
aF-122.31641669606311
aF47.664851474952215
asI8601
(lp67
F-122.33405367105692
aF47.59021629989544
aF-122.33405479263403
aF47.588261407546725
asI8609
(lp68
F-122.34796707923898
aF47.52644491019959
aF-122.3479576996579
aF47.524691531049356
asI8610
(lp69
F-122.32536170301302
aF47.60634398955318
aF-122.32595723756407
aF47.6069945755505
asI8613
(lp70
F-122.34591102456837
aF47.65278060575768
aF-122.3459133911053
aF47.654090859938336
asI8614
(lp71
F-122.32100014407692
aF47.60323188073464
aF-122.32159506293421
aF47.60388272109784
asI8617
(lp72
F-122.31765914894903
aF47.65990401279174
aF-122.31669639833693
aF47.6598923192823
asI8618
(lp73
F-122.32254393379729
aF47.60180983815059
aF-122.32258409882535
aF47.60235771415183
asI8622
(lp74
F-122.32667464020965
aF47.616357773827716
aF-122.32669952758168
aF47.6169260386322
asI8625
(lp75
F-122.34407841838305
aF47.61534476759348
aF-122.3452361444388
aF47.61602861455397
asI8626
(lp76
F-122.32800905804824
aF47.61254223635074
aF-122.32698012114895
aF47.612989185313715
asI82362
(lp77
F-122.31814343234403
aF47.61752820583174
aF-122.316946886293
aF47.617537127425145
asI25041
(lp78
F-122.33124150415085
aF47.61253708175877
aF-122.33145244833196
aF47.612759019146026
asI25042
(lp79
F-122.33405744002756
aF47.59823966977983
aF-122.33405851508415
aF47.596490527813536
asI49649
(lp80
F-122.34532971617335
aF47.61136821711217
aF-122.34651234493784
aF47.61164244869679
asI49650
(lp81
F-122.31938503272072
aF47.614014318918144
aF-122.3181883581686
aF47.614022814420565
asI49653
(lp82
F-122.32471265029524
aF47.714017507160435
aF-122.32349103145735
aF47.714010427477355
asI49654
(lp83
F-122.34348029810262
aF47.614033751736834
aF-122.34465220233953
aF47.61472664340852
asI49657
(lp84
F-122.32847513536764
aF47.60801683673788
aF-122.3275268711916
aF47.60841344871215
asI49658
(lp85
F-122.32498654982658
aF47.59913051558224
aF-122.32498967308389
aF47.59836542880933
asI57861
(lp86
F-122.33068423550017
aF47.609058021787995
aF-122.33075756997421
aF47.60931845956683
asI57862
(lp87
F-122.3347984204171
aF47.60177782495088
aF-122.33479620653341
aF47.60232130322145
asI80641
(lp88
F-122.3553357860967
aF47.62551236719278
aF-122.35421213867674
aF47.62550814865914
asI57874
(lp89
F-122.32749970675675
aF47.61024030871177
aF-122.32648168882054
aF47.61066597172572
asI34222
(lp90
F-122.33555519982092
aF47.61074052048031
aF-122.33640963160782
aF47.611674139589006
asI31493
(lp91
F-122.32216460220172
aF47.61983543952122
aF-122.32102137316414
aF47.6198436274952
asI31494
(lp92
F-122.33157138432102
aF47.60095327228903
aF-122.33132278181584
aF47.600952742065495
asI57897
(lp93
F-122.31786126585594
aF47.65837025945462
aF-122.31783392490485
aF47.659415857478464
asI57898
(lp94
F-122.32710853921522
aF47.622016804861964
aF-122.32664188926834
aF47.62201804686563
asI57901
(lp95
F-122.34889573019302
aF47.61840312984082
aF-122.34887442071494
aF47.61850549892651
asI57902
(lp96
F-122.34843600264453
aF47.673191043258775
aF-122.34807280644331
aF47.67319017562649
asI57913
(lp97
F-122.32440787111054
aF47.614026463527395
aF-122.32365226267748
aF47.61403464993987
asI57914
(lp98
F-122.35706273101253
aF47.63477334141851
aF-122.35704922545008
aF47.635912697106384
asI11018
(lp99
F-122.32225980154598
aF47.61996620364341
aF-122.32227747740697
aF47.62106047719057
asI80658
(lp100
F-122.33324435257988
aF47.60489384912204
aF-122.33222727661311
aF47.60531880750807
asI8830
(lp101
F-122.32409020975751
aF47.62432809173101
aF-122.32409391146508
aF47.62507970993607
asI8833
(lp102
F-122.34278245501748
aF47.607835234969116
aF-122.34387925759884
aF47.60848187310001
asI8837
(lp103
F-122.32013478954543
aF47.61760672859551
aF-122.32015266693732
aF47.618700954734244
asI57990
(lp104
F-122.30166896509347
aF47.64562781480452
aF-122.30164733527239
aF47.645656422611594
asI8841
(lp105
F-122.3385916153328
aF47.61817431524844
aF-122.3386452223552
aF47.61818774217108
asI57994
(lp106
F-122.31538611415763
aF47.659876492353376
aF-122.31534962182918
aF47.66126430142014
asI8854
(lp107
F-122.33542603046396
aF47.61493873323706
aF-122.3366436844534
aF47.61565881077479
asI8858
(lp108
F-122.33873587196999
aF47.604704447646995
aF-122.33923072395247
aF47.605256746365356
asI8870
(lp109
F-122.29797714279401
aF47.715660534564584
aF-122.29790810960397
aF47.71739857641428
asI17065
(lp110
F-122.35842131785449
aF47.632377337261154
aF-122.35840669100968
aF47.633514109088836
asI17066
(lp111
F-122.32062673576334
aF47.60284267115288
aF-122.32062774490034
aF47.60321220158115
asI9677
(lp112
F-122.38692292846993
aF47.55918918034473
aF-122.38697179532545
aF47.55750696413045
asI58077
(lp113
F-122.3540504429199
aF47.62550754342761
aF-122.3529340938322
aF47.625503414477315
asI82654
(lp114
F-122.32080449169626
aF47.62499989056461
aF-122.32021825866305
aF47.625362030365
asI58081
(lp115
F-122.333098041208
aF47.60805606043012
aF-122.3321508333513
aF47.60845263516767
asI58085
(lp116
F-122.38168217038391
aF47.5059217801895
aF-122.38340363070985
aF47.50593788840048
asI58086
(lp117
F-122.37117644349178
aF47.51367120197826
aF-122.37179878524378
aF47.513674218038915
asI33517
(lp118
F-122.38550473217137
aF47.56292267795534
aF-122.38671594740865
aF47.562956608020386
asI33518
(lp119
F-122.35126918120075
aF47.64565128599925
aF-122.3512994092812
aF47.64684688422581
asI82673
(lp120
F-122.34067129431975
aF47.62978492987642
aF-122.34084044090399
aF47.629862282029286
asI82674
(lp121
F-122.32087799553115
aF47.60428669260798
aF-122.32087850889114
aF47.604473630958076
asI41721
(lp122
F-122.33137169048702
aF47.602848758669055
aF-122.33193838758486
aF47.60346833234612
asI41722
(lp123
F-122.32652280985009
aF47.62507219336123
aF-122.32535050382089
aF47.625071808013416
asI12846
(lp124
F-122.35344459720504
aF47.65193730645712
aF-122.35257221116647
aF47.65173958033429
asI41725
(lp125
F-122.35468926763701
aF47.617117678906666
aF-122.35585752348612
aF47.61780677118939
asI41726
(lp126
F-122.30949934797734
aF47.69763172946709
aF-122.30953165736783
aF47.698465689809595
asI58177
(lp127
F-122.32594857007753
aF47.60696904742214
aF-122.32493148180814
aF47.60739417984459
asI58181
(lp128
F-122.35523648139747
aF47.61844303564346
aF-122.35546416588308
aF47.61853888866295
asI58182
(lp129
F-122.37466380636965
aF47.51004456535306
aF-122.37471496092162
aF47.51004447371085
asI58185
(lp130
F-122.33443678211036
aF47.62208429002494
aF-122.33444131399789
aF47.62313747552654
asI58186
(lp131
F-122.40274394786071
aF47.57030293120489
aF-122.4027582669063
aF47.5694361511867
asI54754
(lp132
F-122.29661734349195
aF47.57455460871031
aF-122.29559381538722
aF47.574916723698536
asI58193
(lp133
F-122.33248500820886
aF47.66266225919599
aF-122.3314014275406
aF47.66265764473308
asI58194
(lp134
F-122.32279307374866
aF47.61024484025536
aF-122.3218468185419
aF47.61064063113209
asI58197
(lp135
F-122.37750858153998
aF47.5609779614274
aF-122.37755771111371
aF47.55927534170008
asI58198
(lp136
F-122.32609786355205
aF47.68080311297442
aF-122.32527974651506
aF47.68119231199364
asI123744
(lp137
F-122.33219720856555
aF47.612128772568994
aF-122.33304831485769
aF47.613059323158716
asI58222
(lp138
F-122.33434652181641
aF47.60443340357392
aF-122.33332854790771
aF47.604858669937464
asI58225
(lp139
F-122.33398479567812
aF47.60570590661014
aF-122.3330363316228
aF47.60610235416136
asI58226
(lp140
F-122.33202908187793
aF47.613607435299194
aF-122.33108058331405
aF47.61400436568773
asI33673
(lp141
F-122.33906501341247
aF47.60791914726544
aF-122.33813716934549
aF47.60830701430508
asI33674
(lp142
F-122.32830321741163
aF47.639691820076386
aF-122.32716475149694
aF47.6396916198192
asI33677
(lp143
F-122.3489021232543
aF47.61722787578623
aF-122.34818681475566
aF47.61778108208497
asI9109
(lp144
F-122.32476773504062
aF47.61237272407755
aF-122.3237495724724
aF47.61279853970193
asI9110
(lp145
F-122.33584852868204
aF47.6077487679367
aF-122.33490050349711
aF47.6081458873796
asI9114
(lp146
F-122.32401327654107
aF47.604827880702246
aF-122.32311548345449
aF47.6052033618338
asI9141
(lp147
F-122.33026528335152
aF47.60177098608296
aF-122.32907807416136
aF47.60177583528988
asI9142
(lp148
F-122.32985586540723
aF47.60938043291216
aF-122.33143678778019
aF47.61110736586232
asI76617
(lp149
F-122.35689529787184
aF47.63357903566965
aF-122.35634617416618
aF47.633579124656876
asI9145
(lp150
F-122.32264551165059
aF47.592765874050016
aF-122.32240822525131
aF47.59255124704924
asI9146
(lp151
F-122.31730031370803
aF47.65596886996657
aF-122.31562937897519
aF47.65596072563876
asI60234
(lp152
F-122.3917414155912
aF47.51969881038356
aF-122.3921976581816
aF47.51869335377499
asI9150
(lp153
F-122.33968871030672
aF47.61977308882498
aF-122.33968018205086
aF47.62081566061033
asI7397
(lp154
F-122.32685130788565
aF47.60457827126579
aF-122.32590223089733
aF47.60497545595936
asI33733
(lp155
F-122.32439291198635
aF47.61530223350514
aF-122.32344468932966
aF47.6153077381361
asI33734
(lp156
F-122.33146669930933
aF47.604651435645216
aF-122.33052125590035
aF47.60504698661565
asI33741
(lp157
F-122.34749911548344
aF47.61981023175884
aF-122.34641664573412
aF47.61980633015929
asI33742
(lp158
F-122.33147276743117
aF47.5991430466269
aF-122.3303609153045
aF47.599141258454786
asI33745
(lp159
F-122.33163625228971
aF47.61973403905979
aF-122.33044609868544
aF47.61973692323262
asI33746
(lp160
F-122.28638226512678
aF47.72645185146805
aF-122.28557191794998
aF47.72644333657545
asI58337
(lp161
F-122.34809144320732
aF47.61204595914085
aF-122.3473037190851
aF47.61265524364047
asI1001
(lp162
F-122.33268011952543
aF47.604279153116245
aF-122.33173844905045
aF47.60467313478317
asI1002
(lp163
F-122.3816341480302
aF47.56114249052855
aF-122.38184887958023
aF47.56113104069036
asI1005
(lp164
F-122.35402945879518
aF47.62463294649849
aF-122.35291322203481
aF47.62463057169016
asI1006
(lp165
F-122.35680120691761
aF47.62321678491332
aF-122.35799829856354
aF47.62322096508365
asI34301
(lp166
F-122.32850719189707
aF47.60307680465569
aF-122.32748865288877
aF47.60349926005996
asI1009
(lp167
F-122.33637273430496
aF47.604706320574664
aF-122.3369422768912
aF47.60532897279182
asI1010
(lp168
F-122.33616589483
aF47.604792856149096
aF-122.3367290603535
aF47.605408539343834
asI1013
(lp169
F-122.3376848535394
aF47.60609826116523
aF-122.33828019275546
aF47.606748777771976
asI1014
(lp170
F-122.33749717245323
aF47.60620573713728
aF-122.33807124808212
aF47.606833021990376
asI1017
(lp171
F-122.32688410660577
aF47.53549833757301
aF-122.32616451213876
aF47.5348387349509
asI1018
(lp172
F-122.33133074428103
aF47.612848971605125
aF-122.3318945405664
aF47.61347663552301
asI1021
(lp173
F-122.34517038991005
aF47.617377704601836
aF-122.34445146275077
aF47.617934333112125
asI1022
(lp174
F-122.32912738633058
aF47.59997883329878
aF-122.32912946036622
aF47.59925997099004
asI76413
(lp175
F-122.38678680482236
aF47.55746074866781
aF-122.38681491432563
aF47.55649323730488
asI1025
(lp176
F-122.32644588696654
aF47.59913142699298
aF-122.32644876392422
aF47.59841272857863
asI1026
(lp177
F-122.32783026095485
aF47.615154791516225
aF-122.32683984369365
aF47.615136535909826
asI1029
(lp178
F-122.35809196833998
aF47.624659140502
aF-122.35920771990773
aF47.62466307168618
asI1030
(lp179
F-122.34906422080012
aF47.618629167164286
aF-122.34901487375846
aF47.61949875037028
asI1033
(lp180
F-122.32333900537436
aF47.61304710131898
aF-122.32210156472433
aF47.61304722180154
asI1034
(lp181
F-122.33441151546982
aF47.60256497170695
aF-122.33497559790324
aF47.60318062424313
asI1037
(lp182
F-122.34967367731136
aF47.64951125504268
aF-122.34744381657868
aF47.649176486733005
asI58382
(lp183
F-122.33404460317892
aF47.592294383788186
aF-122.33404550193177
aF47.59033129929846
asI1041
(lp184
F-122.33033593171365
aF47.622007567286694
aF-122.33034126282786
aF47.623085115119416
asI66578
(lp185
F-122.34437647961698
aF47.61335750329758
aF-122.34358870985335
aF47.61396680886068
asI1045
(lp186
F-122.32591639327418
aF47.61007355257253
aF-122.32646910053712
aF47.61067792814955
asI1046
(lp187
F-122.35532094374649
aF47.62332311531883
aF-122.3553112825561
aF47.6245013530531
asI58393
(lp188
F-122.35401578181732
aF47.623266387376205
aF-122.3540058091178
aF47.62450124976614
asI80730
(lp189
F-122.31444673307693
aF47.65838463734419
aF-122.31440930109866
aF47.659539629764474
asI58401
(lp190
F-122.34231557678402
aF47.60815055540817
aF-122.34243578913402
aF47.60825529870009
asI58402
(lp191
F-122.38550949326402
aF47.56461626367951
aF-122.3867193438795
aF47.56465023779697
asI58406
(lp192
F-122.31523557662582
aF47.71584294267067
aF-122.31397859531243
aF47.715834992604954
asI123943
(lp193
F-122.35970682030111
aF47.63358121734618
aF-122.36093942177993
aF47.6335813993015
asI58409
(lp194
F-122.32298842040048
aF47.62317153572065
aF-122.32297149098919
aF47.62423362841867
asI58410
(lp195
F-122.32611531895557
aF47.611939093720686
aF-122.32694243416792
aF47.61287514416072
asI58413
(lp196
F-122.3868963395302
aF47.56108066293538
aF-122.3869459489382
aF47.55937284984442
asI58414
(lp197
F-122.3775166236638
aF47.561986158909946
aF-122.37872819563457
aF47.56198666449435
asI58417
(lp198
F-122.32755685477453
aF47.61038079714233
aF-122.32653884125928
aF47.610806468124274
asI58418
(lp199
F-122.39722733277374
aF47.5792300320883
aF-122.3972624054582
aF47.57759343915302
asI58421
(lp200
F-122.33829394120026
aF47.603905715734314
aF-122.33885696104595
aF47.60456912739393
asI66614
(lp201
F-122.33166051125525
aF47.62421739563525
aF-122.33051072503928
aF47.62422040474884
asI66617
(lp202
F-122.32667153501954
aF47.60775911221095
aF-122.3256539015522
aF47.60818447519266
asI66618
(lp203
F-122.359508802988
aF47.54286397904618
aF-122.35957764546413
aF47.53917940415383
asI9277
(lp204
F-122.33832471466869
aF47.62326903858984
aF-122.33723880670178
aF47.6232651746036
asI66622
(lp205
F-122.33614059516735
aF47.592546583818404
aF-122.33605205822593
aF47.5925466130039
asI31486
(lp206
F-122.30901697004457
aF47.603551763046006
aF-122.30900747044156
aF47.604289491451496
asI8374
(lp207
F-122.32363546111642
aF47.597446454609035
aF-122.32363845803393
aF47.596727957166934
asI35681
(lp208
F-122.34487883327972
aF47.62082361171354
aF-122.3438835105454
aF47.620819893417384
asI58442
(lp209
F-122.30043057436285
aF47.72832842390537
aF-122.29923033492257
aF47.728318464369885
asI11106
(lp210
F-122.30582594548085
aF47.7175046305351
aF-122.30458737372727
aF47.71749337877476
asI58446
(lp211
F-122.344913245234
aF47.609292655747325
aF-122.34607713757995
aF47.60997219210116
asI58449
(lp212
F-122.32436812182056
aF47.61529665120898
aF-122.32438136798956
aF47.61634581265031
asI58450
(lp213
F-122.33705441441938
aF47.62459405586808
aF-122.3358550029805
aF47.62458946069464
asI58453
(lp214
F-122.334200145725
aF47.62090646616906
aF-122.3330359444904
aF47.62088316867789
asI58454
(lp215
F-122.33418629047928
aF47.62076082639941
aF-122.3330625159184
aF47.62073833788143
asI25698
(lp216
F-122.3196020810173
aF47.61877606040975
aF-122.31961963755717
aF47.61987010902005
asI25701
(lp217
F-122.32541352983995
aF47.614143843382756
aF-122.32542723498386
aF47.61520019382991
asI25702
(lp218
F-122.3379280943255
aF47.60837496645499
aF-122.33873644680388
aF47.60925864791785
asI25705
(lp219
F-122.33220730143297
aF47.605455901434716
aF-122.33275994732631
aF47.606060264136254
asI25706
(lp220
F-122.33140952313575
aF47.60091933244935
aF-122.33207809090023
aF47.60165015583711
asI25709
(lp221
F-122.31678491270041
aF47.656382382936684
aF-122.31676835639814
aF47.65684973896839
asI25710
(lp222
F-122.3208023366064
aF47.65507674241868
aF-122.32068548291474
aF47.655072190044265
asI25713
(lp223
F-122.32064583204296
aF47.61302931593832
aF-122.31985361161537
aF47.613011482934155
asI25714
(lp224
F-122.34560392542855
aF47.61411227935395
aF-122.34676931092038
aF47.61479067643557
asI25717
(lp225
F-122.31431036546452
aF47.6568689829432
aF-122.31427361037177
aF47.65826733958614
asI25718
(lp226
F-122.31551524708767
aF47.61647738365998
aF-122.3143182072496
aF47.61648610501016
asI80745
(lp227
F-122.33169749551527
aF47.60082203130832
aF-122.33169896898885
aF47.60007940419008
asI58490
(lp228
F-122.3848363412213
aF47.6675990084264
aF-122.38501273164937
aF47.66765521848271
asI58493
(lp229
F-122.3220270633628
aF47.61413533562746
aF-122.3208056988847
aF47.61414402858826
asI58494
(lp230
F-122.32764838182634
aF47.61391506743152
aF-122.32739083540844
aF47.614023029692646
asI58498
(lp231
F-122.34353985802741
aF47.62082656868729
aF-122.34253230695516
aF47.620820801786714
asI9349
(lp232
F-122.33194397552127
aF47.603468905417486
aF-122.33099533636127
aF47.603865858585834
asI58502
(lp233
F-122.33834324031865
aF47.621966803801364
aF-122.33719650554359
aF47.621962605354824
asI9353
(lp234
F-122.3362590621134
aF47.613207569438174
aF-122.33685730624119
aF47.61360941014518
asI9354
(lp235
F-122.3450852940179
aF47.61261794893102
aF-122.34429730042017
aF47.613227146818815
asI9357
(lp236
F-122.35657673539296
aF47.65264320963022
aF-122.35565653742275
aF47.65243671185104
asI9358
(lp237
F-122.35716178431886
aF47.617007852567475
aF-122.35673909061774
aF47.61733146380148
asI2925
(lp238
F-122.34004919877033
aF47.634691223003365
aF-122.34006190106967
aF47.635202285703485
asI58513
(lp239
F-122.39048326602227
aF47.5202098838811
aF-122.39174855751432
aF47.51979210842088
asI58514
(lp240
F-122.34884800766106
aF47.615990585145965
aF-122.34806058408363
aF47.61659975836284
asI11118
(lp241
F-122.33093005722397
aF47.62600606459961
aF-122.33093651119964
aF47.62682368606248
asI9393
(lp242
F-122.33595814803692
aF47.62089972622005
aF-122.3359494415802
aF47.621949659231994
asI9394
(lp243
F-122.32527417259955
aF47.60935541405016
aF-122.32582683732211
aF47.60995996649827
asI1213
(lp244
F-122.3342841446016
aF47.60167604011148
aF-122.33428681698763
aF47.60091068702004
asI1214
(lp245
F-122.37792810691064
aF47.54102020634501
aF-122.37793602912843
aF47.540688646686355
asI1217
(lp246
F-122.334196610588
aF47.6195961244951
aF-122.33303668513605
aF47.61959355921598
asI1218
(lp247
F-122.35973438080634
aF47.632383916408145
aF-122.36044089063752
aF47.63238516155753
asI16953
(lp248
F-122.31319439372768
aF47.65541021268785
aF-122.31226453050455
aF47.65539912172605
asI1222
(lp249
F-122.3482406093509
aF47.639141132444394
aF-122.34822993314725
aF47.63994205280003
asI33993
(lp250
F-122.3383420560675
aF47.62211484219826
aF-122.3372356959884
aF47.62211079179931
asI33994
(lp251
F-122.34220032860884
aF47.62493444575645
aF-122.34220411228245
aF47.62540108842676
asI1229
(lp252
F-122.33984236902285
aF47.60515056667114
aF-122.34038615099405
aF47.60577309321959
asI17614
(lp253
F-122.3254516182178
aF47.67976363149678
aF-122.32459805467336
aF47.67975047805371
asI8397
(lp254
F-122.35834230344548
aF47.63717045033845
aF-122.35832676925494
aF47.63837811561334
asI1233
(lp255
F-122.32202128785528
aF47.613036632086946
aF-122.3220375531907
aF47.614042145626435
asI17618
(lp256
F-122.35437481748006
aF47.65231006478091
aF-122.35347182313652
aF47.65210540702924
asI8398
(lp257
F-122.31805504055257
aF47.605234623090176
aF-122.31805773896106
aF47.606167707312146
asI35705
(lp258
F-122.3200731568474
aF47.61880015586808
aF-122.31963015327476
aF47.6188033473717
asI35706
(lp259
F-122.34766503663357
aF47.6141545483245
aF-122.34692251697896
aF47.61472873569089
asI16954
(lp260
F-122.34623126191764
aF47.62096829050076
aF-122.34510818248887
aF47.62096427068825
asI58609
(lp261
F-122.33074761564302
aF47.62601219158236
aF-122.33075400193232
aF47.626821609645944
asI58610
(lp262
F-122.35202014267598
aF47.613335707499104
aF-122.35132082110833
aF47.613866091798165
asI58613
(lp263
F-122.3413239546298
aF47.61039390242388
aF-122.34053109396461
aF47.61100700956412
asI58614
(lp264
F-122.33478905474935
aF47.60634598258173
aF-122.33536264469706
aF47.6069729949071
asI9769
(lp265
F-122.33155626837548
aF47.60474935568118
aF-122.33061082386843
aF47.60514490739506
asI58617
(lp266
F-122.32628556335925
aF47.59662145320007
aF-122.32628836086683
aF47.595919105380545
asI58618
(lp267
F-122.33685472385817
aF47.60884292663152
aF-122.33590678952197
aF47.60924016504793
asI58621
(lp268
F-122.34256222247922
aF47.607866276423444
aF-122.34247913750087
aF47.6079485946277
asI1278
(lp269
F-122.33918536664514
aF47.60444507571049
aF-122.33986473414959
aF47.605133572579554
asI1281
(lp270
F-122.3344763152447
aF47.61568550137827
aF-122.33370224631426
aF47.616283944299994
asI9474
(lp271
F-122.3225568003425
aF47.61144962399826
aF-122.32315137840594
aF47.612100898320605
asI9477
(lp272
F-122.32341986325847
aF47.58605726102289
aF-122.32012532757429
aF47.58604901812846
asI9478
(lp273
F-122.32368505332705
aF47.599270720073946
aF-122.3225696345045
aF47.59926861518296
asI35713
(lp274
F-122.32397870886757
aF47.62309453437956
aF-122.3231149468368
aF47.62309013640537
asI58633
(lp275
F-122.33319864077019
aF47.59020280097998
aF-122.33000175230796
aF47.59019905825959
asI35714
(lp276
F-122.32126969726231
aF47.588224798502566
aF-122.3212710198144
aF47.58651847035256
asI58641
(lp277
F-122.33693673973693
aF47.6072908544015
aF-122.33598739904706
aF47.607687438240916
asI58645
(lp278
F-122.34054689816301
aF47.608608307180546
aF-122.34078364593044
aF47.60874835904571
asI83222
(lp279
F-122.33333144437803
aF47.603026696479496
aF-122.3338839004606
aF47.60363087901812
asI11141
(lp280
F-122.32085257446907
aF47.60651699855004
aF-122.320890502115
aF47.60651649847603
asI9509
(lp281
F-122.31417852903934
aF47.66134413511368
aF-122.31413510543086
aF47.662999861970704
asI9510
(lp282
F-122.35122578827638
aF47.65065750431778
aF-122.35035593519801
aF47.65052634987808
asI83242
(lp283
F-122.34006190250176
aF47.6352023620222
aF-122.34008346103263
aF47.63640082967571
asI58677
(lp284
F-122.3444486803646
aF47.613218306988784
aF-122.34560564457439
aF47.613902302274354
asI58681
(lp285
F-122.32477628442848
aF47.61051822709683
aF-122.3253718239728
aF47.61116895520063
asI58682
(lp286
F-122.32226871406611
aF47.62870373373613
aF-122.32132334809887
aF47.62870344938888
asI58685
(lp287
F-122.32775316549933
aF47.60082157337352
aF-122.32775626371358
aF47.600102603660034
asI58686
(lp288
F-122.30101775164339
aF47.6644776983381
aF-122.30096895955295
aF47.66480199411664
asI75153
(lp289
F-122.33592121624845
aF47.60922435375264
aF-122.33675070469326
aF47.6101312478681
asI91545
(lp290
F-122.33488949629644
aF47.603354839248084
aF-122.33545221117812
aF47.60397088319427
asI91546
(lp291
F-122.33859926967132
aF47.58826762096622
aF-122.33918156757699
aF47.58768832401542
asI75169
(lp292
F-122.31933737935105
aF47.60272631670427
aF-122.31933824842615
aF47.60306320210511
asI75170
(lp293
F-122.31865937569567
aF47.67491714563904
aF-122.31744485212583
aF47.67491123154544
asI75173
(lp294
F-122.33989850906802
aF47.60883034766654
aF-122.33897773953002
aF47.60921549015046
asI34214
(lp295
F-122.33572756590227
aF47.62564790930335
aF-122.33512642233144
aF47.62566544270441
asI34218
(lp296
F-122.3308664569955
aF47.61546167828325
aF-122.33145054376516
aF47.61607510279399
asI58797
(lp297
F-122.34132843808752
aF47.6139264338588
aF-122.34061265881482
aF47.61447974858805
asI58798
(lp298
F-122.33358650253214
aF47.61637732503357
aF-122.33475545717236
aF47.617068633813965
asI58801
(lp299
F-122.38203641314134
aF47.66873028663743
aF-122.3820334664323
aF47.66941366639675
asI58802
(lp300
F-122.32243286276804
aF47.591495428321366
aF-122.32243105116112
aF47.59088679086144
asI58805
(lp301
F-122.39947735691801
aF47.564795135059164
aF-122.3995010655768
aF47.563609922389965
asI58806
(lp302
F-122.33507581347358
aF47.58834383792148
aF-122.33426114055804
aF47.58834374009451
asI58809
(lp303
F-122.34060417373489
aF47.61093368200362
aF-122.34176147887992
aF47.611618183486776
asI58810
(lp304
F-122.33565874240263
aF47.60181184212533
aF-122.33560734168773
aF47.602170597521315
asI58813
(lp305
F-122.32774725799692
aF47.630659571659734
aF-122.32654155977256
aF47.63155078409456
asI58814
(lp306
F-122.34968603205108
aF47.615345895236786
aF-122.34889896906014
aF47.615955323301236
asI58817
(lp307
F-122.32562847533464
aF47.61636309995324
aF-122.32564597675382
aF47.61768701359691
asI58818
(lp308
F-122.33352885616944
aF47.6068954067793
aF-122.33408054712146
aF47.60749985255701
asI9673
(lp309
F-122.32398477653906
aF47.624328329134514
aF-122.32398847672346
aF47.62507994734299
asI9674
(lp310
F-122.28726566451277
aF47.549687904053684
aF-122.2865151903087
aF47.54813211497125
asI58829
(lp311
F-122.33570455014289
aF47.62581231242098
aF-122.33526522689569
aF47.62581625668856
asI9678
(lp312
F-122.32237392587464
aF47.62870374205523
aF-122.32237097071611
aF47.630453189681624
asI58833
(lp313
F-122.33092759997912
aF47.6040360358124
aF-122.32997528734721
aF47.60443435738659
asI58834
(lp314
F-122.32628605412783
aF47.59758356141914
aF-122.32509007275979
aF47.59758156149437
asI78073
(lp315
F-122.35406187197133
aF47.61865134385511
aF-122.35405293009495
aF47.61974413191441
asI43941
(lp316
F-122.31688531743289
aF47.608108005112186
aF-122.31688537257011
aF47.60920197873644
asI9697
(lp317
F-122.33672742804953
aF47.615693815328854
aF-122.33792853123293
aF47.61640518778039
asI9698
(lp318
F-122.31118365352395
aF47.63060045421879
aF-122.30996832221362
aF47.63059328840096
asI43942
(lp319
F-122.33315876677393
aF47.61491822506906
aF-122.33396011204023
aF47.61543311591291
asI9702
(lp320
F-122.32394298009702
aF47.61978404693725
aF-122.32394874264652
aF47.6208345013078
asI12541
(lp321
F-122.33823772025416
aF47.616573325645355
aF-122.33921626395622
aF47.61715131988072
asI34293
(lp322
F-122.3374628136507
aF47.60326425405895
aF-122.33682381571846
aF47.60353197479235
asI34294
(lp323
F-122.33947563113375
aF47.61517991665287
aF-122.33876914369691
aF47.61572574858403
asI9721
(lp324
F-122.33285983433703
aF47.618568164321196
aF-122.33286593399207
aF47.61961030417493
asI9722
(lp325
F-122.32911441549915
aF47.60872622654876
aF-122.32970989952899
aF47.609377167250344
asI2986
(lp326
F-122.31532710385747
aF47.661351462361765
aF-122.31530650362542
aF47.66202475907766
asI34305
(lp327
F-122.32210618981337
aF47.622030137150205
aF-122.32208925420854
aF47.62309501512121
asI34306
(lp328
F-122.37884413885205
aF47.561116937680204
aF-122.38002653748575
aF47.56111772942978
asI34309
(lp329
F-122.32774604389733
aF47.60721938924439
aF-122.32672871575723
aF47.6076449527028
asI34310
(lp330
F-122.33203224736887
aF47.60357059111686
aF-122.33108360703385
aF47.603967545195715
asI75281
(lp331
F-122.33676924696063
aF47.60539473470226
aF-122.33575278916405
aF47.60582024665378
asI75282
(lp332
F-122.34487557972776
aF47.62097438377946
aF-122.34387216215238
aF47.62097063527149
asI9762
(lp333
F-122.32584684479119
aF47.5923219933188
aF-122.32584831574678
aF47.58822916442779
asI1577
(lp334
F-122.3351194372979
aF47.59039464288719
aF-122.33444154607065
aF47.590394472660144
asI9770
(lp335
F-122.32000745632573
aF47.623161726261266
aF-122.31999098349917
aF47.62422980765609
asI1601
(lp336
F-122.315564418327
aF47.65988684666006
aF-122.31552793074592
aF47.66127465560799
asI1602
(lp337
F-122.32602784295666
aF47.607058381333204
aF-122.32503480644371
aF47.60747346092919
asI34386
(lp338
F-122.34242535224354
aF47.73234543673574
aF-122.3424269027518
aF47.73248818975011
asI28946
(lp339
F-122.32978940893264
aF47.604486131841696
aF-122.33038428233736
aF47.60513664680434
asI59013
(lp340
F-122.32367100889012
aF47.59995091501423
aF-122.3234591415712
aF47.5999506257622
asI59014
(lp341
F-122.30847065936275
aF47.715788172039474
aF-122.30723625777956
aF47.715776672398654
asI59038
(lp342
F-122.32929853671416
aF47.62316348556759
aF-122.32930529651856
aF47.62423315528385
asI59041
(lp343
F-122.3209149824109
aF47.6113039676716
aF-122.32143225718592
aF47.61187179300759
asI59042
(lp344
F-122.3422148211413
aF47.6272065296288
aF-122.34110226288946
aF47.62720261368245
asI59045
(lp345
F-122.3342024414249
aF47.622066902778755
aF-122.33307901194291
aF47.62204383951476
asI59046
(lp346
F-122.34032934806761
aF47.63647712345144
aF-122.34034330907376
aF47.637063977679794
asI59049
(lp347
F-122.3841828898139
aF47.566455264139904
aF-122.38539427468746
aF47.566455640185794
asI34477
(lp348
F-122.3311134998347
aF47.60592048502801
aF-122.33009922446448
aF47.60634472174704
asI34481
(lp349
F-122.32379597176809
aF47.60798832515919
aF-122.32277890903941
aF47.60841346505883
asI34482
(lp350
F-122.32391758264745
aF47.59235655437377
aF-122.32361115783151
aF47.591921485058826
asI59061
(lp351
F-122.31926723761407
aF47.61222375081592
aF-122.31932390787935
aF47.61288016436982
asI59062
(lp352
F-122.33376154103958
aF47.603820224264666
aF-122.33431428399653
aF47.60442463748125
asI34489
(lp353
F-122.33199453293213
aF47.61760621081447
aF-122.33315391310462
aF47.61829234260428
asI59066
(lp354
F-122.31524334377492
aF47.66859840756038
aF-122.3152436161623
aF47.669396601279985
asI34501
(lp355
F-122.32549012578247
aF47.61854367726547
aF-122.32524061940047
aF47.61884000819941
asI34502
(lp356
F-122.32336747774015
aF47.61517064044599
aF-122.32219107026533
aF47.61516600674914
asI34505
(lp357
F-122.33308800488575
aF47.62085437236246
aF-122.33309436596461
aF47.621940409522075
asI34506
(lp358
F-122.33288120796425
aF47.62085492577848
aF-122.33288756472655
aF47.621940962949644
asI78114
(lp359
F-122.32309896218005
aF47.59757717499297
aF-122.3225401909367
aF47.597577352804436
asI34510
(lp360
F-122.32922335878473
aF47.62085920589665
aF-122.32922975024294
aF47.62188225198959
asI34517
(lp361
F-122.32939364270858
aF47.62864606225114
aF-122.32939704427785
aF47.62905151512158
asI34518
(lp362
F-122.3002984448951
aF47.71201609766661
aF-122.29956942232619
aF47.71200914619071
asI78118
(lp363
F-122.34176748486735
aF47.611838185380925
aF-122.34098189098479
aF47.61244547867543
asI18166
(lp364
F-122.32394969655923
aF47.62088384592711
aF-122.32379891465575
aF47.62088492480189
asI53546
(lp365
F-122.33264147111956
aF47.60427898662235
aF-122.3332106656196
aF47.604901761838114
asI53549
(lp366
F-122.38556908752754
aF47.559368825952774
aF-122.3866436018043
aF47.55937332829221
asI59166
(lp367
F-122.33857841098012
aF47.6209346477929
aF-122.33856976476558
aF47.62197879837287
asI46725
(lp368
F-122.33428709011069
aF47.60083965662687
aF-122.33429009133302
aF47.6001018123101
asI10053
(lp369
F-122.30041465550154
aF47.70570646440261
aF-122.29889585600066
aF47.70570507150536
asI10054
(lp370
F-122.35045788254212
aF47.61579897018035
aF-122.34971570408591
aF47.61637336538819
asI10058
(lp371
F-122.34221642207775
aF47.62634328065367
aF-122.34111643410716
aF47.62633908403309
asI12601
(lp372
F-122.38332741943384
aF47.69111815915025
aF-122.38536249993828
aF47.69111358982241
asI34661
(lp373
F-122.34233942294938
aF47.61314068948963
aF-122.34350642076241
aF47.61383069373236
asI10153
(lp374
F-122.322394009572
aF47.60178014368186
aF-122.32079362434658
aF47.601777221236055
asI10157
(lp375
F-122.37754130136734
aF47.561106706091856
aF-122.37872253099286
aF47.56111648573588
asI10161
(lp376
F-122.32932941710854
aF47.625153976166715
aF-122.32937756655998
aF47.62683933962625
asI10165
(lp377
F-122.32195048479754
aF47.610748630959066
aF-122.32254486315178
aF47.61140001317838
asI42961
(lp378
F-122.34644759429108
aF47.619789902141655
aF-122.34643885609283
aF47.6208403491855
asI42962
(lp379
F-122.319276755113
aF47.612238143956404
aF-122.31839799525504
aF47.61224243781183
asI42965
(lp380
F-122.33480946383395
aF47.60325643248827
aF-122.33386097976589
aF47.603653108633154
asI10202
(lp381
F-122.33035963227589
aF47.605114583893155
aF-122.32941358320329
aF47.60551015042664
asI10209
(lp382
F-122.31815582333394
aF47.61882798182958
aF-122.3169594545737
aF47.61883663253092
asI10210
(lp383
F-122.34221498469154
aF47.62094514570407
aF-122.34220566794731
aF47.62201681186299
asI10213
(lp384
F-122.34646454322134
aF47.61815288055827
aF-122.34705278160317
aF47.618470573059184
asI10214
(lp385
F-122.34220397400684
aF47.61679772244043
aF-122.34341336189087
aF47.617513064929476
asI10218
(lp386
F-122.31070793516423
aF47.67053528881755
aF-122.31072087383376
aF47.67242456270702
asI10222
(lp387
F-122.34878285105347
aF47.629709761645096
aF-122.34758587524186
aF47.62970514989518
asI48125
(lp388
F-122.34964242108794
aF47.649635755282766
aF-122.34971657216182
aF47.650349080571864
asI48126
(lp389
F-122.32367633905886
aF47.6109815000232
aF-122.32427168502029
aF47.61163239353964
asI75769
(lp390
F-122.32950789927601
aF47.60560256807426
aF-122.33007145356666
aF47.60621794123511
asI75777
(lp391
F-122.33212122518056
aF47.60846214620085
aF-122.33266733737882
aF47.60906908544179
asI75778
(lp392
F-122.3319688450897
aF47.60852484831619
aF-122.3325044538794
aF47.60912011645106
asI75781
(lp393
F-122.35369662492079
aF47.55372764247753
aF-122.35479715572811
aF47.553726431399355
asI75785
(lp394
F-122.31478916316955
aF47.69668954916059
aF-122.31215429760466
aF47.696671482967695
asI75786
(lp395
F-122.34365331297268
aF47.61765127051839
aF-122.34437391142316
aF47.618077659777995
asI34837
(lp396
F-122.32294465891214
aF47.60439529191385
aF-122.32245795258603
aF47.60459866393884
asI34838
(lp397
F-122.33737315758253
aF47.60316637164572
aF-122.33673416039082
aF47.603434091876125
asI34841
(lp398
F-122.34608022348897
aF47.61557110238729
aF-122.34691459353029
aF47.61606423203642
asI34842
(lp399
F-122.32147103124427
aF47.611904743800935
aF-122.32214923146577
aF47.61266859893259
asI34850
(lp400
F-122.3291528504869
aF47.62786723866877
aF-122.3291662243636
aF47.62860913689711
asI2085
(lp401
F-122.31211863945632
aF47.658345471824084
aF-122.31208338392179
aF47.65969722902247
asI10278
(lp402
F-122.32309680436522
aF47.598410614382274
aF-122.322536976608
aF47.598410740790236
asI2089
(lp403
F-122.32535391215636
aF47.61900418899472
aF-122.32535524764641
aF47.619218232796285
asI2090
(lp404
F-122.33144398349827
aF47.59998347148379
aF-122.33144763660424
aF47.59926868733192
asI43053
(lp405
F-122.33793185405253
aF47.60837348018666
aF-122.33700335824138
aF47.60876139393494
asI43054
(lp406
F-122.35683261543222
aF47.63843941632426
aF-122.35681891253603
aF47.63957890568681
asI43057
(lp407
F-122.3808211577202
aF47.55929697531944
aF-122.38134808506936
aF47.55929714816618
asI43058
(lp408
F-122.31734314187774
aF47.66306109289689
aF-122.31644426670779
aF47.6630560558338
asI3081
(lp409
F-122.35702059441016
aF47.61690894860187
aF-122.35658714524236
aF47.617240719643966
asI34877
(lp410
F-122.33303960251031
aF47.613033817515614
aF-122.332090458757
aF47.61343029651347
asI34878
(lp411
F-122.31691793122027
aF47.60069105750679
aF-122.3171148648059
aF47.60027283589416
asI91829
(lp412
F-122.35682752999236
aF47.619817278904634
aF-122.35681993053078
aF47.620894776034284
asI34881
(lp413
F-122.32959628566375
aF47.61588825095479
aF-122.32864751376204
aF47.616285328280874
asI34882
(lp414
F-122.31245538631039
aF47.65309087907912
aF-122.3122531149104
aF47.65338553397446
asI34885
(lp415
F-122.33181305740487
aF47.622022542271274
aF-122.33181946706449
aF47.62306458753802
asI34890
(lp416
F-122.33164057985371
aF47.624313206962604
aF-122.33164302852698
aF47.624716908923524
asI75865
(lp417
F-122.33020546290423
aF47.59994361399303
aF-122.3291229671317
aF47.599978747502334
asI75866
(lp418
F-122.33209673661236
aF47.6120290815424
aF-122.33114805577526
aF47.612426245183755
asI34490
(lp419
F-122.32304481025996
aF47.59873163503577
aF-122.32304415457178
aF47.59838573643486
asI43118
(lp420
F-122.3393730441215
aF47.60541213122386
aF-122.34001326156947
aF47.60604629353595
asI43121
(lp421
F-122.38698937622422
aF47.556416309081065
aF-122.38743365741581
aF47.55639180466769
asI34937
(lp422
F-122.33976176302116
aF47.61037366743688
aF-122.3388124772047
aF47.61077069813997
asI34938
(lp423
F-122.30617566965282
aF47.587696948258056
aF-122.30618629349128
aF47.58695118057767
asI43193
(lp424
F-122.33146120829055
aF47.600118924390955
aF-122.33062981321383
aF47.6000853225983
asI18621
(lp425
F-122.3817480655211
aF47.66505881343228
aF-122.3820614332362
aF47.66532519877446
asI18622
(lp426
F-122.38221217834064
aF47.669372877217846
aF-122.38464993874143
aF47.669379858595036
asI59593
(lp427
F-122.30553119098947
aF47.639081420386816
aF-122.30408874860406
aF47.63832365405546
asI34509
(lp428
F-122.3317983029946
aF47.619717046899495
aF-122.33180483502504
aF47.62076487471153
asI76033
(lp429
F-122.33309683419127
aF47.60804988966221
aF-122.33366471653392
aF47.608670111841185
asI76034
(lp430
F-122.31988691085235
aF47.62111859060237
aF-122.31961444937066
aF47.621120619147646
asI76038
(lp431
F-122.33017855203967
aF47.606298707991066
aF-122.33072906053329
aF47.60690391396439
asI76042
(lp432
F-122.33141084953323
aF47.61626262174324
aF-122.33256948676329
aF47.61695146587703
asI76045
(lp433
F-122.33432636383841
aF47.58814647776305
aF-122.33432748747506
aF47.58615035181405
asI51470
(lp434
F-122.38223635566868
aF47.668066422718944
aF-122.38223552021326
aF47.66867586580207
asI51473
(lp435
F-122.33308130263102
aF47.60608327506363
aF-122.3336491765232
aF47.60670374794507
asI51474
(lp436
F-122.34975513042515
aF47.65055818037764
aF-122.34983045557983
aF47.65125265208476
asI51477
(lp437
F-122.33727969144968
aF47.619730830741105
aF-122.33727092045157
aF47.62082558388034
asI76054
(lp438
F-122.34223475691748
aF47.61964225728389
aF-122.34108717662886
aF47.619637912492955
asI51481
(lp439
F-122.38689705014677
aF47.52543594708482
aF-122.38690783727759
aF47.524414361276264
asI76058
(lp440
F-122.36264797366603
aF47.52099001570597
aF-122.36265719324794
aF47.51923283080411
asI51485
(lp441
F-122.33887947912078
aF47.61227156067204
aF-122.34003680483438
aF47.612955667622195
asI51489
(lp442
F-122.33722186514221
aF47.61282094703658
aF-122.33634071053541
aF47.613189316301884
asI51490
(lp443
F-122.31130456580995
aF47.622116848836235
aF-122.31009139676112
aF47.622112070023434
asI51493
(lp444
F-122.34372937024212
aF47.61028680019893
aF-122.34399370106621
aF47.610619399241585
asI51494
(lp445
F-122.33109055785059
aF47.6039643700071
aF-122.33164294888986
aF47.6045683131106
asI59702
(lp446
F-122.33049064235446
aF47.61971752507151
aF-122.330496283462
aF47.62079544148215
asI12682
(lp447
F-122.32709900433514
aF47.6064912259203
aF-122.32608130175706
aF47.60691677968053
asI76101
(lp448
F-122.32386855647079
aF47.59997059692695
aF-122.32387158381489
aF47.59920521842837
asI76102
(lp449
F-122.34183471985926
aF47.60951231072253
aF-122.34158178682634
aF47.60961937577702
asI76105
(lp450
F-122.33111997523844
aF47.60093107481504
aF-122.33178854241456
aF47.601661898280774
asI76106
(lp451
F-122.3286842342688
aF47.602986360861244
aF-122.32922592531028
aF47.60357849471754
asI35193
(lp452
F-122.33578778263713
aF47.620932060142195
aF-122.33444219624369
aF47.62092669987241
asI35197
(lp453
F-122.31054931953994
aF47.71762933504922
aF-122.31018342278293
aF47.71823081882044
asI35198
(lp454
F-122.30436768680006
aF47.67482517074141
aF-122.30387063080731
aF47.67482484446425
asI35201
(lp455
F-122.33593988655035
aF47.60784896752269
aF-122.3367635608083
aF47.608748990288376
asI35202
(lp456
F-122.33182579215499
aF47.62087145797704
aF-122.33183263626741
aF47.62191308269968
asI3082
(lp457
F-122.31677021096199
aF47.617634302814366
aF-122.31678758431929
aF47.61872830751988
asI76186
(lp458
F-122.32522095237893
aF47.61914004141071
aF-122.32522144241399
aF47.61921861442567
asI35233
(lp459
F-122.32597791367658
aF47.605104679492236
aF-122.32657438863906
aF47.60575669201759
asI35234
(lp460
F-122.34096724680536
aF47.62315556191713
aF-122.33984062565892
aF47.62315134602082
asI35237
(lp461
F-122.33601112679285
aF47.61780363919596
aF-122.33528827447196
aF47.618397269969314
asI35238
(lp462
F-122.34010089608984
aF47.63707549957215
aF-122.34014543988299
aF47.63731638601716
asI76201
(lp463
F-122.33813928449756
aF47.60690738726981
aF-122.33897102296474
aF47.607816813092406
asI76202
(lp464
F-122.35294434811189
aF47.61864705594957
aF-122.35293620163205
aF47.61969898446915
asI35333
(lp465
F-122.3322073516806
aF47.612134317599086
aF-122.33125866976418
aF47.612531481986146
asI35334
(lp466
F-122.35273192635024
aF47.62550266469464
aF-122.35156054283823
aF47.625498303841475
asI59945
(lp467
F-122.31695859642316
aF47.61417403398968
aF-122.31697501699105
aF47.61521380333246
asI59949
(lp468
F-122.35688514601193
aF47.62577518550341
aF-122.35795194900274
aF47.62577822633514
asI59950
(lp469
F-122.3411401669393
aF47.62718986245227
aF-122.341090913551
aF47.62921188830375
asI59953
(lp470
F-122.32073760522285
aF47.60163456052006
aF-122.31969106024808
aF47.601632717312285
asI59954
(lp471
F-122.3345447460233
aF47.60632332696482
aF-122.33359670987868
aF47.60671975185865
asI59957
(lp472
F-122.32306264857229
aF47.61981159298759
aF-122.32275726255347
aF47.61983404014791
asI59958
(lp473
F-122.31381204621893
aF47.706306157297504
aF-122.31373602863331
aF47.70667350894461
asI59961
(lp474
F-122.34654566011554
aF47.61168139335297
aF-122.3464022910097
aF47.61177448948088
asI59962
(lp475
F-122.34514830916777
aF47.620959639644546
aF-122.34512582031272
aF47.62200089194809
asI76357
(lp476
F-122.3166745152352
aF47.60809980511068
aF-122.31667456481865
aF47.60916642948081
asI76358
(lp477
F-122.32788646450007
aF47.6124586362324
aF-122.32685752820086
aF47.61290558408784
asI35417
(lp478
F-122.33421723886472
aF47.6230823570432
aF-122.33417948800465
aF47.62306924974922
asI59994
(lp479
F-122.31951943677848
aF47.61868077078612
aF-122.31832335331418
aF47.61868966571943
asI59997
(lp480
F-122.2817070811803
aF47.69676873041203
aF-122.28139456793097
aF47.69676630636167
asI35422
(lp481
F-122.31774904013145
aF47.65630084325392
aF-122.31773715542666
aF47.6567598780928
asI60005
(lp482
F-122.30550505505981
aF47.58363121098365
aF-122.30550937887149
aF47.58299382764561
asI35430
(lp483
F-122.32962966352241
aF47.599273098134496
aF-122.33018622937531
aF47.59993821018484
asI60009
(lp484
F-122.34518570836102
aF47.61082343992999
aF-122.34482225797792
aF47.611104718216055
asI35434
(lp485
F-122.32543783681754
aF47.61303826770568
aF-122.32453268005875
aF47.61303649147494
asI35437
(lp486
F-122.32643329480534
aF47.60578981289983
aF-122.32541542779335
aF47.60621531033089
asI76398
(lp487
F-122.31548356534275
aF47.65977080980918
aF-122.31491031180374
aF47.659757265688405
asI76405
(lp488
F-122.3234194460564
aF47.5861340222681
aF-122.3201164605595
aF47.58612575814143
asI76406
(lp489
F-122.35158818435242
aF47.624644021831635
aF-122.35158165160631
aF47.625435344821376
asI76409
(lp490
F-122.32683196582029
aF47.60769505700248
aF-122.32742725197606
aF47.60834561161659
asI10874
(lp491
F-122.33255689633056
aF47.609157858373216
aF-122.33167108656153
aF47.60960606281451
asI10877
(lp492
F-122.3498239750739
aF47.61778040076866
aF-122.35063037219895
aF47.618257055656535
asI76414
(lp493
F-122.32983928015956
aF47.60941509645618
aF-122.32985063683054
aF47.60946684431303
asI76417
(lp494
F-122.33718623801906
aF47.612677908200425
aF-122.33623624493093
aF47.613075055787135
asI10886
(lp495
F-122.32574410003532
aF47.61012971845434
aF-122.32472668251658
aF47.6105552359461
asI27277
(lp496
F-122.35107359551185
aF47.65464848790435
aF-122.35060719935595
aF47.654645355029075
asI27278
(lp497
F-122.34435912659738
aF47.61690188372885
aF-122.34517393354204
aF47.61738353939615
asI27281
(lp498
F-122.35401713276283
aF47.624605283631126
aF-122.35401078669544
aF47.625384217655935
asI76434
(lp499
F-122.32981753241403
aF47.61102825444563
aF-122.3302132295101
aF47.61146156859695
asI84641
(lp500
F-122.32086193377278
aF47.6072592545198
aF-122.32086415460786
aF47.60804054462145
asI35501
(lp501
F-122.32456431037588
aF47.61638304552826
aF-122.32458149156716
aF47.61770719920796
asI35502
(lp502
F-122.33895874964973
aF47.604611671618486
aF-122.33874346612386
aF47.604701475990915
asI35505
(lp503
F-122.32244705999913
aF47.61151171801181
aF-122.32142985235362
aF47.61193712166308
asI35506
(lp504
F-122.32522506968043
aF47.61973271892032
aF-122.32523083778756
aF47.620795579636855
asI35509
(lp505
F-122.32341283425146
aF47.6197599982786
aF-122.32319812831739
aF47.61979492266099
asI35525
(lp506
F-122.32582266389467
aF47.69774779753254
aF-122.32583161225571
aF47.69846875991103
asI35526
(lp507
F-122.31185443150639
aF47.66132117575511
aF-122.31182797179098
aF47.663066281655254
asI35529
(lp508
F-122.34989283132269
aF47.67383612151898
aF-122.34854085327308
aF47.673831088127926
asI35530
(lp509
F-122.33172506911605
aF47.6176086288843
aF-122.33097763549881
aF47.618186487939056
asI84689
(lp510
F-122.33389356562381
aF47.60560868015232
aF-122.33294166666184
aF47.606006563680374
asI84690
(lp511
F-122.37954389369784
aF47.51925377133203
aF-122.38076925823941
aF47.519258667897965
asI2778
(lp512
F-122.33015438644202
aF47.60319582533863
aF-122.32920554870874
aF47.60359304458632
asI2781
(lp513
F-122.33968478060383
aF47.619778663825436
aF-122.33849101878673
aF47.61977407576029
asI2782
(lp514
F-122.34248412121259
aF47.60825855158723
aF-122.34215584210739
aF47.608390720063674
asI2785
(lp515
F-122.32737775097372
aF47.59575187390108
aF-122.32637726818095
aF47.59575502734936
asI2786
(lp516
F-122.32134980977732
aF47.60505191234177
aF-122.32190226260464
aF47.60565644932964
asI2789
(lp517
F-122.32973695158488
aF47.60946892488468
aF-122.32872246252093
aF47.609893124730675
asI2790
(lp518
F-122.32645556964901
aF47.59667642078088
aF-122.32645867016124
aF47.59589755249089
asI2793
(lp519
F-122.32206282995628
aF47.602678937520984
aF-122.3210449369431
aF47.603103778834374
asI2797
(lp520
F-122.38481415187506
aF47.66876070207565
aF-122.38632734483848
aF47.66876217425472
asI2798
(lp521
F-122.3597348256601
aF47.63226877441955
aF-122.36044133392748
aF47.63227001956619
asI27393
(lp522
F-122.31010761603379
aF47.61414157826522
aF-122.3101007504389
aF47.615235924520334
asI27394
(lp523
F-122.31805067639183
aF47.615298965794146
aF-122.31806831702163
aF47.61639312568451
asI27398
(lp524
F-122.38689687093316
aF47.56288431932883
aF-122.38689954546884
aF47.561153121740524
asI27402
(lp525
F-122.3259884841213
aF47.63831009412816
aF-122.32598492745585
aF47.63966147969166
asI60182
(lp526
F-122.33406615100199
aF47.59014498541872
aF-122.33326700295358
aF47.59014530281107
asI84789
(lp527
F-122.33454995601437
aF47.60966289362215
aF-122.3336018569717
aF47.610059722709266
asI84790
(lp528
F-122.30047268820779
aF47.72658191125942
aF-122.2992073534857
aF47.726571026305464
asI60222
(lp529
F-122.32566650411061
aF47.610039680706244
aF-122.32464908771767
aF47.61046519750508
asI60225
(lp530
F-122.31512953401227
aF47.70403083509582
aF-122.31507606145958
aF47.70486079089295
asI60230
(lp531
F-122.31981375191417
aF47.612876880625535
aF-122.31950002966036
aF47.61287467709843
asI60233
(lp532
F-122.320652133356
aF47.60919998302653
aF-122.31987287934383
aF47.609197046377915
asI76618
(lp533
F-122.33657799329372
aF47.60658665978642
aF-122.33713069305823
aF47.60719072953117
asI76621
(lp534
F-122.32670322944446
aF47.68228157266864
aF-122.3256420034386
aF47.68305532956427
asI76622
(lp535
F-122.34459824839517
aF47.61799546510895
aF-122.34503470055765
aF47.61825371955497
asI76625
(lp536
F-122.38085341748541
aF47.66453183163292
aF-122.38154197444797
aF47.665117166158595
asI76626
(lp537
F-122.31810030914929
aF47.61534804099382
aF-122.31695668453068
aF47.6153564009557
asI11105
(lp538
F-122.33358868420162
aF47.60192367448343
aF-122.33256439152787
aF47.60235449123702
asI35682
(lp539
F-122.34619213988825
aF47.61981648366911
aF-122.34511135056219
aF47.619812554688146
asI2921
(lp540
F-122.31188820778509
aF47.66310773116669
aF-122.31186108545425
aF47.66484299580218
asI2922
(lp541
F-122.32151424548394
aF47.58638982472985
aF-122.32151428558447
aF47.586332684010394
asI35693
(lp542
F-122.32433282451382
aF47.611709670683275
aF-122.32492804198077
aF47.61236056195403
asI35694
(lp543
F-122.33038746733557
aF47.62515415346012
aF-122.32919510002228
aF47.6251561124722
asI11126
(lp544
F-122.3342865035861
aF47.599981512442426
aF-122.3342891296033
aF47.59926788682642
asI11129
(lp545
F-122.33388265204665
aF47.61770994971465
aF-122.33313181698047
aF47.61829041615473
asI11130
(lp546
F-122.34226243689876
aF47.657980133640976
aF-122.34083947946249
aF47.65797377566187
asI11133
(lp547
F-122.33744078737219
aF47.61280125452076
aF-122.33773171058971
aF47.612978837540716
asI11134
(lp548
F-122.33854694926993
aF47.605656675886365
aF-122.33811846812026
aF47.60583589886431
asI11137
(lp549
F-122.34834606863949
aF47.63914177464054
aF-122.3483353940597
aF47.639942695006056
asI11138
(lp550
F-122.34108707668749
aF47.6196379120621
aF-122.33995661202732
aF47.61963429360845
asI35717
(lp551
F-122.32177867814515
aF47.6038959403491
aF-122.32237340520993
aF47.604547076647094
asI35718
(lp552
F-122.34750427714432
aF47.61966769089483
aF-122.3464218101006
aF47.61966378934787
asI43913
(lp553
F-122.38419074804386
aF47.56096306703142
aF-122.38540279814372
aF47.5609700938121
asI43914
(lp554
F-122.31431828910532
aF47.66315768556157
aF-122.31429213963108
aF47.66485158079914
asI35729
(lp555
F-122.32554135237638
aF47.60822811287729
aF-122.32613579547701
aF47.608879161966094
asI35730
(lp556
F-122.34004758220155
aF47.63417285204849
aF-122.34004434533874
aF47.634176568573665
asI35745
(lp557
F-122.3295108564668
aF47.602492414657775
aF-122.32855851575202
aF47.602890929429
asI35749
(lp558
F-122.32143113366864
aF47.62514951730302
aF-122.32140170839438
aF47.6267947607159
asI35750
(lp559
F-122.32310591802958
aF47.61223283274215
aF-122.32228442945764
aF47.61258049190181
asI43945
(lp560
F-122.32588739010154
aF47.5924699597693
aF-122.32423758477114
aF47.59246908326449
asI43946
(lp561
F-122.34347147680168
aF47.608669661781505
aF-122.34317086629964
aF47.60879404663385
asI76717
(lp562
F-122.32536248805357
aF47.61965040885851
aF-122.3253684908314
aF47.6207597184528
asI76718
(lp563
F-122.33970787287043
aF47.618600458990876
aF-122.33965974249311
aF47.61964503084702
asI76721
(lp564
F-122.33084868160543
aF47.626917115929736
aF-122.32930239714238
aF47.62693108529237
asI76722
(lp565
F-122.33080614232746
aF47.62681331468834
aF-122.32930843514077
aF47.62682684495736
asI68549
(lp566
F-122.32839075106457
aF47.69685508080976
aF-122.3271575235862
aF47.696846337609955
asI68550
(lp567
F-122.35682013066322
aF47.61971328888085
aF-122.35801683329063
aF47.619718857247854
asI35793
(lp568
F-122.32490444192746
aF47.607505247084084
aF-122.32549067705493
aF47.60814655537351
asI35794
(lp569
F-122.3378474494391
aF47.60828628974057
aF-122.33691207673697
aF47.60867707623818
asI35797
(lp570
F-122.33835979852837
aF47.62094220903776
aF-122.3371645391563
aF47.62093752490499
asI35798
(lp571
F-122.33063074138558
aF47.52284359945454
aF-122.32978068543461
aF47.52285714193633
asI33273
(lp572
F-122.34995762577971
aF47.650624817522456
aF-122.3500329537353
aF47.65131928909407
asI33274
(lp573
F-122.32091848073729
aF47.61640257680392
aF-122.32093600593932
aF47.61749669517696
asI35821
(lp574
F-122.30042927587421
aF47.72839969686494
aF-122.29922903478659
aF47.72838973731586
asI35822
(lp575
F-122.31415222913253
aF47.66315662858461
aF-122.31318984104297
aF47.66314997312253
asI35825
(lp576
F-122.33729466381912
aF47.60431711885288
aF-122.33788965492846
aF47.604967581601365
asI35826
(lp577
F-122.332911733428
aF47.622036221921654
aF-122.33173907347961
aF47.622031298546936
asI35829
(lp578
F-122.36322063248016
aF47.62870065647761
aF-122.3643728041807
aF47.62870678283028
asI35830
(lp579
F-122.32376404209306
aF47.59571816370569
aF-122.32264896363195
aF47.59571633638454
asI35837
(lp580
F-122.35336912142208
aF47.61634607852615
aF-122.3545558097097
aF47.617046225006696
asI35838
(lp581
F-122.31929675108994
aF47.61170186706356
aF-122.31828122382717
aF47.612125011023025
asI35841
(lp582
F-122.33689646974273
aF47.61361794545173
aF-122.33616173969608
aF47.614186705668395
asI35842
(lp583
F-122.32988034635241
aF47.59027293470029
aF-122.32933597882652
aF47.590272287741264
asI35845
(lp584
F-122.32673106193916
aF47.614153404321485
aF-122.32620711081609
aF47.61415069891978
asI35846
(lp585
F-122.35820401314326
aF47.63719969489172
aF-122.35818935451435
aF47.63833905324146
asI35849
(lp586
F-122.32744735607332
aF47.58626864314879
aF-122.32599086281168
aF47.58626793381103
asI35850
(lp587
F-122.33054128868129
aF47.618508577394174
aF-122.33033539936001
aF47.6185205820145
asI19482
(lp588
F-122.35542001407046
aF47.65254538066445
aF-122.35453963045825
aF47.65234725348991
asI19485
(lp589
F-122.31807067994137
aF47.7212979380446
aF-122.3154540798015
aF47.721278713091294
asI19486
(lp590
F-122.38013778736821
aF47.667241186428235
aF-122.38160752406247
aF47.66848658759192
asI35881
(lp591
F-122.35403014624288
aF47.624484906798
aF-122.35291391265872
aF47.62448253199642
asI35882
(lp592
F-122.310451609018
aF47.71760226641088
aF-122.31008571132001
aF47.718203749869474
asI35886
(lp593
F-122.35047108608583
aF47.61345011603288
aF-122.3496834668816
aF47.61405884533337
asI35889
(lp594
F-122.33569389116866
aF47.624474040516695
aF-122.33452136977468
aF47.62447254105999
asI35890
(lp595
F-122.33249370948069
aF47.62590488433254
aF-122.33084297488824
aF47.62593238257456
asI35909
(lp596
F-122.33467511330826
aF47.609768490494346
aF-122.33372701329105
aF47.610165320447834
asI71574
(lp597
F-122.31191560270332
aF47.65834989766731
aF-122.31188034188688
aF47.6597016548026
asI35941
(lp598
F-122.33604109409589
aF47.5982651344922
aF-122.33604467057074
aF47.59737102093695
asI35942
(lp599
F-122.35125489614597
aF47.61391702833846
aF-122.35046682018265
aF47.61452598520183
asI35945
(lp600
F-122.32300678233457
aF47.62203460169362
aF-122.32298960580313
aF47.62309768338643
asI35946
(lp601
F-122.32975245663476
aF47.609423722736224
aF-122.33133337689125
aF47.6111506571213
asI117879
(lp602
F-122.31732177644595
aF47.653591748514856
aF-122.31744771320336
aF47.65336555622857
asI11397
(lp603
F-122.33666257317986
aF47.603599500171754
aF-122.33622424430237
aF47.603782978519476
asI11398
(lp604
F-122.33696977787687
aF47.602505517459484
aF-122.33757002505311
aF47.60314700639935
asI85149
(lp605
F-122.31865791426227
aF47.67505421634781
aF-122.31744338748966
aF47.67504830223868
asI85150
(lp606
F-122.32277415309821
aF47.603463796222805
aF-122.32176105369622
aF47.603887346496876
asI76961
(lp607
F-122.32599707949566
aF47.712279770923445
aF-122.32477250407052
aF47.712272992524326
asI76962
(lp608
F-122.3356198953949
aF47.59915047239419
aF-122.33558800971419
aF47.59831124493715
asI36009
(lp609
F-122.32631051821399
aF47.60165486515833
aF-122.32251589447219
aF47.60164880935783
asI36010
(lp610
F-122.35401590057384
aF47.61980959978362
aF-122.35400723982559
aF47.620867717127716
asI117932
(lp611
F-122.3212993965119
aF47.61192979647162
aF-122.32197759454556
aF47.61269365280109
asI36013
(lp612
F-122.3131861358949
aF47.663147115889316
aF-122.31316109170425
aF47.66478911473026
asI36014
(lp613
F-122.34535138385087
aF47.61609730633881
aF-122.3461443326217
aF47.61656587368812
asI76985
(lp614
F-122.34029800803937
aF47.63406576438717
aF-122.34028765788406
aF47.63463532735103
asI76986
(lp615
F-122.31558873447845
aF47.62107804691867
aF-122.3147417361896
aF47.621084151950626
asI76989
(lp616
F-122.34439845327785
aF47.616917649752956
aF-122.34368740867056
aF47.61746769303023
asI76994
(lp617
F-122.3271192879593
aF47.60657608589127
aF-122.32771417943312
aF47.60722645385088
asI82490
(lp618
F-122.32193717969706
aF47.62422405749385
aF-122.32099916114932
aF47.62422252457222
asI36093
(lp619
F-122.31819262988178
aF47.6198726537132
aF-122.31699618321521
aF47.61988138096344
asI36094
(lp620
F-122.32495681258943
aF47.530576672978846
aF-122.32406938601018
aF47.53056636935153
asI36097
(lp621
F-122.31315958997261
aF47.65687972737879
aF-122.31312512675315
aF47.65819340881091
asI36098
(lp622
F-122.38540658731283
aF47.55747078707095
aF-122.38535828439615
aF47.55741015560664
asI36101
(lp623
F-122.31688546407666
aF47.60742703096459
aF-122.316885330973
aF47.60799041800358
asI36102
(lp624
F-122.33813746488751
aF47.60495709154648
aF-122.33873079376109
aF47.60560560628205
asI36105
(lp625
F-122.33502099690907
aF47.61702534037808
aF-122.33619643775849
aF47.61772022937806
asI36106
(lp626
F-122.34016233393473
aF47.60742486406362
aF-122.34104011785597
aF47.60838538408574
asI3341
(lp627
F-122.32429689875734
aF47.61964792565467
aF-122.32421717670375
aF47.61967928633558
asI3342
(lp628
F-122.30065306959321
aF47.682992620300126
aF-122.29974324072326
aF47.68299278794442
asI16941
(lp629
F-122.35681406887801
aF47.62215519048496
aF-122.35680567812999
aF47.62319503524266
asI36113
(lp630
F-122.34972216510508
aF47.614016117795884
aF-122.35054226087321
aF47.61450136870129
asI36114
(lp631
F-122.34484419588928
aF47.62095800382332
aF-122.34482164199956
aF47.62200198886459
asI16942
(lp632
F-122.3424223790362
aF47.65805379337122
aF-122.34240518098912
aF47.65839858409621
asI36118
(lp633
F-122.35051367746233
aF47.61465202349133
aF-122.35135053860445
aF47.61514703553941
asI36121
(lp634
F-122.32679945076266
aF47.53554069327678
aF-122.3260798567822
aF47.534881090118574
asI36122
(lp635
F-122.30880786094133
aF47.61297015604092
aF-122.30756110125239
aF47.61296695169647
asI36125
(lp636
F-122.33878442504029
aF47.605653855271036
aF-122.33937780655839
aF47.60630218012066
asI36126
(lp637
F-122.31819438078853
aF47.619982306985875
aF-122.31699793160088
aF47.619991034254525
asI12849
(lp638
F-122.34050452194833
aF47.60853164070759
aF-122.34008254245522
aF47.608762076468935
asI68905
(lp639
F-122.31499015417742
aF47.70312076244475
aF-122.31239799927144
aF47.7031031050403
asI52522
(lp640
F-122.33068800390775
aF47.60957836368914
aF-122.33072277669588
aF47.61004823877126
asI52525
(lp641
F-122.38539217114185
aF47.56463398359458
aF-122.38539430869324
aF47.56289923354016
asI52526
(lp642
F-122.33959067087224
aF47.61173400627063
aF-122.34075415312289
aF47.612421867088116
asI52529
(lp643
F-122.32498628553871
aF47.59506710721913
aF-122.32379059540568
aF47.59506546997948
asI52530
(lp644
F-122.3876784139802
aF47.668752308266335
aF-122.39013749477942
aF47.668742463221
asI68917
(lp645
F-122.32645244471865
aF47.59746066318546
aF-122.32645549339219
aF47.59669554879059
asI68918
(lp646
F-122.34966493570302
aF47.615341057492856
aF-122.35051689780074
aF47.61584498993388
asI68921
(lp647
F-122.32522408168514
aF47.61294189629186
aF-122.3244482345859
aF47.61294037281553
asI68922
(lp648
F-122.32651834427
aF47.62432981232271
aF-122.3253463859361
aF47.62433319207827
asI36158
(lp649
F-122.37750423936598
aF47.5592198236306
aF-122.37873493389375
aF47.55920996830385
asI68929
(lp650
F-122.33407289423207
aF47.60179871664327
aF-122.334070187497
aF47.60246019852165
asI36162
(lp651
F-122.32079203592596
aF47.722319028539395
aF-122.31922694931895
aF47.722306874888815
asI77125
(lp652
F-122.33194379434254
aF47.61350126900317
aF-122.33099529706325
aF47.61389819868188
asI11590
(lp653
F-122.31679682023592
aF47.61879936572719
aF-122.31681412240458
aF47.619893753375145
asI7393
(lp654
F-122.31120488628255
aF47.60355385320178
aF-122.31119988480644
aF47.604301768035434
asI77129
(lp655
F-122.35232320658663
aF47.65168590502402
aF-122.35171742440659
aF47.65154360054924
asI11594
(lp656
F-122.33087206445248
aF47.613927200382406
aF-122.32992404877368
aF47.61432432042987
asI11598
(lp657
F-122.34345349364034
aF47.61965007973047
aF-122.34254167730667
aF47.61964622641065
asI82489
(lp658
F-122.32706415356508
aF47.63680163396991
aF-122.32705962392441
aF47.63820888383359
asI33338
(lp659
F-122.32243709180331
aF47.6045959366478
aF-122.32303164342176
aF47.60524664609512
asI23781
(lp660
F-122.33407666368899
aF47.600820002202674
aF-122.33295970106077
aF47.600818634004995
asI81126
(lp661
F-122.3324196147545
aF47.615484529478906
aF-122.33360978150334
aF47.616226508184155
asI85381
(lp662
F-122.32575091294467
aF47.680364543813795
aF-122.32479076720719
aF47.680548586530215
asI85382
(lp663
F-122.32073093998203
aF47.61760489110003
aF-122.32074841180437
aF47.6186992724765
asI85385
(lp664
F-122.32464482942514
aF47.68058300970758
aF-122.32293759041896
aF47.6809304674856
asI85386
(lp665
F-122.32463593034484
aF47.6804445200559
aF-122.32292869582854
aF47.680791977702654
asI81133
(lp666
F-122.34580072077577
aF47.622103941102324
aF-122.3450386744515
aF47.62210151971942
asI11665
(lp667
F-122.31685530293501
aF47.724153578680514
aF-122.31685623550133
aF47.72483804791619
asI11669
(lp668
F-122.39161255867899
aF47.52674130522277
aF-122.39269984585565
aF47.52674741119029
asI11670
(lp669
F-122.34622126641825
aF47.61545784051447
aF-122.34703736518406
aF47.61594017072826
asI11673
(lp670
F-122.39733266419813
aF47.57923106563575
aF-122.39736773357289
aF47.57759447266797
asI11674
(lp671
F-122.3261486252608
aF47.61304205958642
aF-122.32552715672207
aF47.61304361832015
asI77217
(lp672
F-122.31994865149964
aF47.61532900429852
aF-122.31998424311591
aF47.61757500337904
asI77218
(lp673
F-122.32628655350393
aF47.597446487190055
aF-122.32509057528534
aF47.597444487270536
asI77221
(lp674
F-122.34751845077322
aF47.61083285498824
aF-122.34867004909019
aF47.611509292053746
asI77222
(lp675
F-122.33929251463547
aF47.605323424371065
aF-122.33870351955939
aF47.605571566754605
asI77225
(lp676
F-122.33162596822991
aF47.62189983394455
aF-122.3304811777674
aF47.62190311548226
asI77226
(lp677
F-122.38463171023669
aF47.66873009287407
aF-122.38462905366715
aF47.66943209544291
asI11717
(lp678
F-122.31018697501878
aF47.6080885749708
aF-122.30899071935659
aF47.60808395152723
asI11718
(lp679
F-122.32701039601395
aF47.58830066489028
aF-122.32607874872019
aF47.58830048623694
asI77261
(lp680
F-122.34004490026999
aF47.616694019869776
aF-122.33933429860865
aF47.617243239469765
asI77262
(lp681
F-122.32303674307548
aF47.61029261042137
aF-122.32363223389777
aF47.61094370120872
asI77265
(lp682
F-122.33289264660132
aF47.61959366300148
aF-122.33232790316242
aF47.6195951537457
asI77266
(lp683
F-122.33174305120308
aF47.61144930152793
aF-122.3322124627248
aF47.61196519647593
asI36309
(lp684
F-122.35252847668669
aF47.615675739042445
aF-122.35332943832344
aF47.61614805162651
asI36310
(lp685
F-122.33563979750711
aF47.61637216608935
aF-122.33486872508044
aF47.61696837907226
asI69081
(lp686
F-122.34649919077762
aF47.61346893412243
aF-122.34771739835767
aF47.61418910028999
asI69082
(lp687
F-122.3479068757477
aF47.61544159052509
aF-122.34717319534715
aF47.616009795402455
asI69085
(lp688
F-122.32923693805931
aF47.59146632689429
aF-122.32923154877713
aF47.58934062258356
asI69086
(lp689
F-122.32240262646208
aF47.60164582593268
aF-122.32080224536611
aF47.6016429036081
asI69089
(lp690
F-122.33145571536188
aF47.5983587901522
aF-122.33050151824507
aF47.59836023144729
asI69090
(lp691
F-122.34039312758708
aF47.63815904136294
aF-122.34092539218925
aF47.63910684631727
asI69093
(lp692
F-122.35396493967991
aF47.617669378944335
aF-122.35420613416777
aF47.61781148597019
asI69094
(lp693
F-122.32275625478505
aF47.603480928647855
aF-122.32401514107882
aF47.60485617622079
asI69098
(lp694
F-122.3192674323243
aF47.61212030228353
aF-122.31874340244725
aF47.6121228637353
asI11765
(lp695
F-122.34820449421531
aF47.61211667066614
aF-122.34936184001643
aF47.61280123812444
asI11766
(lp696
F-122.31674966643462
aF47.72415364408032
aF-122.31675059760846
aF47.72483811331685
asI11770
(lp697
F-122.33683162591399
aF47.60451439013911
aF-122.33637578164132
aF47.604705251250905
asI77313
(lp698
F-122.38165495756435
aF47.66858745275652
aF-122.38203760552275
aF47.66858795179386
asI77314
(lp699
F-122.31008637066851
aF47.617646689313055
aF-122.30888918699544
aF47.61764292563627
asI36357
(lp700
F-122.38553154756188
aF47.5665268286836
aF-122.38636942204133
aF47.56652570862245
asI36358
(lp701
F-122.32897707855417
aF47.601663165371775
aF-122.32643631923263
aF47.60165252997981
asI11785
(lp702
F-122.33724334771158
aF47.62325687031274
aF-122.33723308895817
aF47.62452623362708
asI11786
(lp703
F-122.3196338442705
aF47.601637607908884
aF-122.31962825877294
aF47.6014148566217
asI69133
(lp704
F-122.35667475390404
aF47.618661509361914
aF-122.35666625460286
aF47.61969904354676
asI69134
(lp705
F-122.34007973377284
aF47.63415974111565
aF-122.34007698119132
aF47.634598623783695
asI77349
(lp706
F-122.35252576926698
aF47.617024231997924
aF-122.35178506232668
aF47.61759679058009
asI3337
(lp707
F-122.34254747912526
aF47.62094646642137
aF-122.3425383591306
aF47.62199626187417
asI77370
(lp708
F-122.32062396334263
aF47.60174151949823
aF-122.32062631259593
aF47.60266060879487
asI3338
(lp709
F-122.38466031282337
aF47.66658708332402
aF-122.38465615252765
aF47.667645661926365
asI77382
(lp710
F-122.31804445779362
aF47.61414575361599
aF-122.3180617626127
aF47.61523184739453
asI77389
(lp711
F-122.32086445477292
aF47.6081964780448
aF-122.32086622446059
aF47.609238679421
asI77390
(lp712
F-122.33952985431458
aF47.60521820687017
aF-122.33929312812005
aF47.60531993858624
asI36109
(lp713
F-122.34334680165804
aF47.61395808886301
aF-122.34256962516871
aF47.61455862421163
asI36110
(lp714
F-122.33414817957417
aF47.626029362201834
aF-122.3325723291072
aF47.626029763775044
asI11865
(lp715
F-122.39159845509468
aF47.53152427175087
aF-122.39264040546978
aF47.53152528271941
asI11866
(lp716
F-122.32266258013496
aF47.60840082920297
aF-122.3232571868209
aF47.609052070614446
asI11869
(lp717
F-122.37668137082629
aF47.5156418799319
aF-122.37927051266509
aF47.51564960185113
asI11870
(lp718
F-122.35682435935307
aF47.625453952808854
aF-122.35682510710251
aF47.62565451888355
asI11873
(lp719
F-122.35825199838176
aF47.63355974196483
aF-122.35823821034015
aF47.634698747657225
asI11874
(lp720
F-122.33336853352343
aF47.590216709051916
aF-122.33336972961744
aF47.58823112975348
asI11878
(lp721
F-122.32877994579069
aF47.61343453111405
aF-122.3277640832197
aF47.61386011917639
asI11881
(lp722
F-122.3223276255525
aF47.60465312594494
aF-122.32130782600956
aF47.605079276534894
asI11882
(lp723
F-122.33794120082352
aF47.60501350506465
aF-122.33853665440812
aF47.60566434529483
asI36117
(lp724
F-122.33861685031874
aF47.605720789058985
aF-122.3392102305124
aF47.60636911478152
asI36490
(lp725
F-122.3818859419318
aF47.51465754308289
aF-122.38180670958626
aF47.51379284820544
asI36493
(lp726
F-122.33042745133687
aF47.61684623098535
aF-122.32969261841947
aF47.61741379169568
asI36494
(lp727
F-122.31449228502065
aF47.65689580182859
aF-122.31445776449156
aF47.65820932655625
asI69277
(lp728
F-122.3266110309445
aF47.607687715628565
aF-122.32559339890761
aF47.608113078413865
asI69278
(lp729
F-122.34636716553564
aF47.61791081696534
aF-122.34725523202134
aF47.61839043983224
asI69281
(lp730
F-122.28855040650582
aF47.722939780978415
aF-122.28642461437613
aF47.72293892632458
asI69282
(lp731
F-122.28797027314434
aF47.710182945741174
aF-122.28540012841485
aF47.71015250713095
asI69305
(lp732
F-122.35150270044997
aF47.61523317770424
aF-122.35071471935184
aF47.61584188838574
asI69306
(lp733
F-122.34664824621014
aF47.61334949016936
aF-122.34786648935331
aF47.61406962670849
asI77545
(lp734
F-122.33610190024685
aF47.60778115923641
aF-122.33692557623345
aF47.608681180830665
asI77546
(lp735
F-122.3423698668446
aF47.616673658442245
aF-122.34352746595943
aF47.61735836776474
asI77549
(lp736
F-122.33294577313879
aF47.6242085314942
aF-122.33181406265878
aF47.624211509355995
asI77550
(lp737
F-122.3512138578066
aF47.64986406029165
aF-122.35120960698666
aF47.6506742651327
asI77557
(lp738
F-122.33745707277924
aF47.60520347153538
aF-122.33696021065718
aF47.605411514229694
asI77558
(lp739
F-122.32063255213842
aF47.60354346033837
aF-122.32063458069963
aF47.60421880587068
asI36137
(lp740
F-122.34961424954217
aF47.61411233795366
aF-122.34887940866905
aF47.61468022005767
asI77561
(lp741
F-122.34099614406585
aF47.6208068579126
aF-122.33985452978685
aF47.62080249643153
asI77562
(lp742
F-122.37884952205084
aF47.56202778467527
aF-122.37884852714869
aF47.56110036169796
asI36138
(lp743
F-122.30939945021636
aF47.666445313844704
aF-122.30835930548336
aF47.666438242557845
asI77569
(lp744
F-122.34029943500714
aF47.63471248798898
aF-122.34032807920661
aF47.635196930165584
asI77570
(lp745
F-122.32498772751735
aF47.59573763282055
aF-122.32499016428369
aF47.59502674106641
asI77573
(lp746
F-122.32428033848926
aF47.6067961739056
aF-122.32329972065835
aF47.607206099720614
asI77574
(lp747
F-122.34247614226638
aF47.61108203932181
aF-122.34168813781076
aF47.611691328717036
asI31498
(lp748
F-122.3524058918047
aF47.615770781159085
aF-122.35320685379166
aF47.61624309460482
asI36141
(lp749
F-122.37873088299567
aF47.50638528368749
aF-122.37875557577313
aF47.50470858830536
asI68910
(lp750
F-122.33408653802168
aF47.709596796906226
aF-122.33410081138446
aF47.71041366424078
asI36646
(lp751
F-122.38321095570527
aF47.66631329101735
aF-122.38402027780161
aF47.66586985762512
asI77609
(lp752
F-122.33800044154462
aF47.61548933584783
aF-122.33867009192457
aF47.61588554957066
asI77610
(lp753
F-122.32385584447367
aF47.592530207444064
aF-122.32338054512412
aF47.592620881507976
asI68914
(lp754
F-122.34008478464297
aF47.63647450413975
aF-122.34009252313008
aF47.636687622784386
asI77618
(lp755
F-122.31444925075486
aF47.65183530592492
aF-122.31440452976204
aF47.65355130719731
asI69437
(lp756
F-122.35567150026331
aF47.637416366167976
aF-122.35566055449081
aF47.63824627274133
asI81205
(lp757
F-122.33599731788216
aF47.61859278371934
aF-122.33598845108881
aF47.619660138817856
asI69441
(lp758
F-122.34578137938225
aF47.62198599423387
aF-122.34509594259704
aF47.62198381641321
asI69442
(lp759
F-122.38224963063614
aF47.6678266782762
aF-122.38316213700031
aF47.668600731402286
asI69445
(lp760
F-122.32541529263592
aF47.61302699863207
aF-122.32544146924302
aF47.61305887066295
asI69446
(lp761
F-122.32890664239407
aF47.59928452678376
aF-122.32779594783753
aF47.59928284798163
asI69485
(lp762
F-122.33131216541388
aF47.60781668341016
aF-122.33186503885423
aF47.608420963215806
asI69489
(lp763
F-122.2769137902847
aF47.65408478744212
aF-122.2769123630339
aF47.65436752803427
asI77118
(lp764
F-122.32310817675243
aF47.6243085280844
aF-122.32309578299521
aF47.62508008922203
asI53125
(lp765
F-122.34955296125796
aF47.61290308981279
aF-122.34876558902455
aF47.613512339422975
asI53126
(lp766
F-122.34089849379619
aF47.61602550719606
aF-122.34205482635706
aF47.61670946340163
asI48449
(lp767
F-122.3592445115273
aF47.63226790875589
aF-122.35962610680338
aF47.63226858256534
asI53130
(lp768
F-122.34217166966295
aF47.61327457266563
aF-122.34332952734536
aF47.613959174120545
asI53133
(lp769
F-122.34394189695217
aF47.61547136673161
aF-122.34315694093459
aF47.616077827644496
asI53134
(lp770
F-122.33702957135365
aF47.62207158980148
aF-122.33702104132827
aF47.62316578733546
asI30701
(lp771
F-122.33642484379304
aF47.61314117297092
aF-122.33702308843263
aF47.61354301263166
asI53137
(lp772
F-122.35687603341407
aF47.63478325987377
aF-122.35686252375957
aF47.635922615539116
asI53138
(lp773
F-122.32789909463843
aF47.60911208358462
aF-122.32688081439487
aF47.60953819829403
asI59374
(lp774
F-122.34221211698707
aF47.62317111418202
aF-122.34114492181628
aF47.62316718751308
asI77126
(lp775
F-122.34621815642065
aF47.61005814503041
aF-122.34738275955603
aF47.610742255088304
asI12217
(lp776
F-122.3668848183328
aF47.533672475397346
aF-122.36690688612077
aF47.53286522145451
asI12218
(lp777
F-122.36094179684291
aF47.63237272698262
aF-122.36092734037362
aF47.63350424903736
asI77130
(lp778
F-122.35552512424248
aF47.637442785761515
aF-122.35551417586929
aF47.63827269232361
asI85954
(lp779
F-122.32903588214462
aF47.612075450853574
aF-122.32988755870709
aF47.61300746496224
asI36813
(lp780
F-122.32184329267452
aF47.6058578417246
aF-122.32239593233487
aF47.60646229420136
asI36814
(lp781
F-122.3398400637693
aF47.623266393282144
aF-122.33983041360193
aF47.62446785418476
asI36142
(lp782
F-122.33780794392604
aF47.616604355809635
aF-122.33817794784706
aF47.61755878143004
asI53237
(lp783
F-122.29970644398931
aF47.68175580590617
aF-122.2997384413567
aF47.683008714941536
asI53238
(lp784
F-122.32627565933053
aF47.59912974872581
aF-122.32627853863858
aF47.59841105031574
asI53241
(lp785
F-122.38408020284261
aF47.56461968032415
aF-122.38408225331018
aF47.56288497910998
asI53242
(lp786
F-122.32758575380443
aF47.59832013399948
aF-122.32758986244826
aF47.59755749159003
asI12285
(lp787
F-122.33157524078955
aF47.6197094746985
aF-122.33158185340868
aF47.6207709819645
asI12286
(lp788
F-122.35145399690224
aF47.615208215109085
aF-122.35228409256759
aF47.6156988691398
asI12289
(lp789
F-122.35445595329425
aF47.64472200511612
aF-122.35445393043136
aF47.64558017661923
asI12290
(lp790
F-122.28429564482398
aF47.71190715056174
aF-122.2842288197385
aF47.711906222792486
asI59058
(lp791
F-122.34004346877174
aF47.61316686634068
aF-122.33925863443874
aF47.613773739650206
asI86057
(lp792
F-122.31495500888771
aF47.699486895102766
aF-122.31498775672652
aF47.70032133028683
asI32054
(lp793
F-122.31807114447787
aF47.614023650286136
aF-122.31693574893309
aF47.61403177283716
asI23874
(lp794
F-122.38102432526193
aF47.66444357235371
aF-122.38171288297981
aF47.66502890584836
asI53422
(lp795
F-122.34351961995687
aF47.62330563994918
aF-122.34251399268392
aF47.62330119096964
asI53429
(lp796
F-122.32309885628517
aF47.597426393178075
aF-122.32254410670504
aF47.59742656978119
asI53430
(lp797
F-122.33102000288004
aF47.618361945213366
aF-122.33086587936346
aF47.6184831364225
asI53433
(lp798
F-122.33436424272222
aF47.607512905295394
aF-122.33491709022941
aF47.60811671108738
asI53434
(lp799
F-122.38955049040224
aF47.562913054210995
aF-122.38955291998252
aF47.561180835768695
asI94421
(lp800
F-122.33034035815956
aF47.6188726351752
aF-122.3303440505325
aF47.619597505573
asI78041
(lp801
F-122.33369387470972
aF47.60371977083706
aF-122.33274522618386
aF47.60411653228109
asI78042
(lp802
F-122.35368756657682
aF47.617701903048484
aF-122.35296436606991
aF47.6182615774027
asI10277
(lp803
F-122.33102222529715
aF47.60582327745204
aF-122.33000795107735
aF47.60624751335837
asI81706
(lp804
F-122.33180171581164
aF47.60166095490317
aF-122.33037417564007
aF47.601658766096406
asI78065
(lp805
F-122.32931033416993
aF47.6178728057229
aF-122.33005798411403
aF47.61831990429444
asI78069
(lp806
F-122.32085338958989
aF47.60269318254734
aF-122.32085356264159
aF47.60276915349109
asI10281
(lp807
F-122.33334242692402
aF47.60498821557036
aF-122.33232534990887
aF47.60541317465674
asI12537
(lp808
F-122.32700038532566
aF47.64564245424029
aF-122.3268658317098
aF47.645849689600794
asI12538
(lp809
F-122.3409087135821
aF47.61250205627029
aF-122.3401210073963
aF47.61311107375063
asI10282
(lp810
F-122.32088380428333
aF47.60352124126149
aF-122.32088583610391
aF47.60419658678966
asI12542
(lp811
F-122.34619195703304
aF47.62082833211734
aF-122.34509715919762
aF47.62082441326968
asI12545
(lp812
F-122.33577679848882
aF47.62325667502705
aF-122.33445725053609
aF47.62325097392391
asI12546
(lp813
F-122.33574955174454
aF47.62314141254796
aF-122.33443000645865
aF47.62313571113243
asI12549
(lp814
F-122.38539816488317
aF47.56645571027292
aF-122.38540016725598
aF47.56472153559275
asI12550
(lp815
F-122.3275902942645
aF47.59748364633961
aF-122.3275978344295
aF47.595925318703046
asI37129
(lp816
F-122.3553384709358
aF47.624649024613824
aF-122.35533248697247
aF47.625394686044906
asI37130
(lp817
F-122.32603599215074
aF47.59486792060122
aF-122.32603725946754
aF47.592412418957736
asI37133
(lp818
F-122.32070014979365
aF47.60718262237131
aF-122.32009091976529
aF47.607180775474376
asI37134
(lp819
F-122.3318663487957
aF47.617705228960325
aF-122.3330166003708
aF47.61838595955238
asI37137
(lp820
F-122.33546624967884
aF47.600109277972756
aF-122.33430600571856
aF47.600107471914924
asI37138
(lp821
F-122.34068129726967
aF47.63808430639712
aF-122.34151753672462
aF47.63954452682184
asI28949
(lp822
F-122.34741756800923
aF47.612820202738554
aF-122.34845184576837
aF47.613438234579164
asI28953
(lp823
F-122.31804831798758
aF47.6026526199252
aF-122.31683859145784
aF47.60265037435933
asI28954
(lp824
F-122.3398929873117
aF47.625463517919115
aF-122.33979136540955
aF47.627066194906476
asI28957
(lp825
F-122.32611182923652
aF47.58818003150492
aF-122.32611654060678
aF47.58620226283092
asI28958
(lp826
F-122.33237500237068
aF47.60229822811008
aF-122.33142574021358
aF47.602694347202615
asI28961
(lp827
F-122.29684653297547
aF47.56632440366516
aF-122.29674788271876
aF47.5663287557681
asI28962
(lp828
F-122.32031312781268
aF47.699526451093924
aF-122.32033634263878
aF47.700360734180464
asI78117
(lp829
F-122.35060789729046
aF47.6133418709333
aF-122.35140107836017
aF47.613810735250354
asI53542
(lp830
F-122.33872310426278
aF47.6159278030785
aF-122.33994247527458
aF47.6166483889281
asI53545
(lp831
F-122.34255725542872
aF47.60770296266336
aF-122.34264660987765
aF47.607755445485104
asI78122
(lp832
F-122.32439384953088
aF47.616370376285204
aF-122.32441102638006
aF47.61769452999103
asI12589
(lp833
F-122.33749436256993
aF47.611183791606116
aF-122.33654757535771
aF47.61158081751439
asI53550
(lp834
F-122.32364860844267
aF47.59828408047695
aF-122.32365137586196
aF47.59751891090362
asI9421
(lp835
F-122.32091045549338
aF47.65507880522954
aF-122.32090867645093
aF47.65543082981438
asI58078
(lp836
F-122.32537747730527
aF47.60635042422868
aF-122.32438511403396
aF47.60676526639615
asI37174
(lp837
F-122.32887188569003
aF47.60010441678189
aF-122.327679280587
aF47.60010263759267
asI37177
(lp838
F-122.31810632958357
aF47.61647229759205
aF-122.31691003178373
aF47.61648126413503
asI37178
(lp839
F-122.35417933678487
aF47.624605887345744
aF-122.35417299314594
aF47.62538482137962
asI37181
(lp840
F-122.32522228145419
aF47.61886421379956
aF-122.32505934039713
aF47.61901907572125
asI37185
(lp841
F-122.34022864856294
aF47.616551695722855
aF-122.34139995353233
aF47.6172443827431
asI37186
(lp842
F-122.35133185443712
aF47.615132062295736
aF-122.3505944534113
aF47.61570169928633
asI9149
(lp843
F-122.32216701164734
aF47.613021890552176
aF-122.32218327979403
aF47.61402740407117
asI4433
(lp844
F-122.3410231711819
aF47.61238420692682
aF-122.34218634668416
aF47.613072026714065
asI4434
(lp845
F-122.34250348134712
aF47.60783841065618
aF-122.34258985732826
aF47.607889144094386
asI4437
(lp846
F-122.32140061869721
aF47.60702962325379
aF-122.32197605328396
aF47.60765963457899
asI4438
(lp847
F-122.33114365001063
aF47.61825711452683
aF-122.33139734448247
aF47.61840725725078
asI4441
(lp848
F-122.33906460954142
aF47.60791913506115
aF-122.33989826757113
aF47.60883055723911
asI4442
(lp849
F-122.32913089505978
aF47.60873884654267
aF-122.32811329609896
aF47.60916431582832
asI4445
(lp850
F-122.31816173708505
aF47.618690856467346
aF-122.3169653714837
aF47.618699507406326
asI20833
(lp851
F-122.29789402322682
aF47.70844449649227
aF-122.29788631855394
aF47.709684140722786
asI20834
(lp852
F-122.28790672904225
aF47.69312365503582
aF-122.28789043348513
aF47.69377365290102
asI20837
(lp853
F-122.33283288394269
aF47.59835814945103
aF-122.33170177688142
aF47.59835638184076
asI20838
(lp854
F-122.28753878773693
aF47.7313119573471
aF-122.2874360125569
aF47.7313118982096
asI20841
(lp855
F-122.32499579256792
aF47.59840934718287
aF-122.32449903354113
aF47.59840840022046
asI20845
(lp856
F-122.34854609138746
aF47.65118453962197
aF-122.34738664408198
aF47.65100981034079
asI20846
(lp857
F-122.32366958853078
aF47.59828649358178
aF-122.32309725166846
aF47.59828450669631
asI12673
(lp858
F-122.38160671038575
aF47.50584851020922
aF-122.38178877370885
aF47.504432111583796
asI12674
(lp859
F-122.31675989151701
aF47.61646858513233
aF-122.3167771919343
aF47.61756311148549
asI12677
(lp860
F-122.33212951558576
aF47.618565611010744
aF-122.33213599001924
aF47.61964507939169
asI12678
(lp861
F-122.33557513668731
aF47.61075689606603
aF-122.33462700969119
aF47.61115444392101
asI94602
(lp862
F-122.32214603889295
aF47.61869518247819
aF-122.32092272953658
aF47.618700845138946
asI12686
(lp863
F-122.34879885051676
aF47.61968063996094
aF-122.3477162809958
aF47.6196766846964
asI94611
(lp864
F-122.32903608594312
aF47.62203871692715
aF-122.32904243017528
aF47.6230616428382
asI94612
(lp865
F-122.32880279028491
aF47.596249297181
aF-122.32776688753148
aF47.59572333836039
asI86449
(lp866
F-122.30722549615965
aF47.726567401150795
aF-122.30598995455941
aF47.72655716260536
asI86450
(lp867
F-122.31807182813637
aF47.72122666368914
aF-122.31545523158746
aF47.721207438762136
asI94651
(lp868
F-122.33646713406803
aF47.61173698891494
aF-122.33729795654415
aF47.61264425055681
asI13045
(lp869
F-122.32795672365522
aF47.609190966423604
aF-122.32855188036038
aF47.60984207547253
asI13046
(lp870
F-122.34222905589318
aF47.61977372413998
aF-122.34222002949193
aF47.62083028109522
asI94677
(lp871
F-122.33297224845225
aF47.62726412555351
aF-122.33241232029572
aF47.62773172261679
asI12765
(lp872
F-122.33833570190919
aF47.62315393354725
aF-122.33722961195203
aF47.62314999768028
asI12769
(lp873
F-122.3482960711934
aF47.611996007128546
aF-122.34945341551567
aF47.61268057365746
asI12770
(lp874
F-122.34247013553157
aF47.60828522523226
aF-122.3431603325541
aF47.608886593362584
asI94731
(lp875
F-122.37632918257758
aF47.559312369786895
aF-122.37749334180663
aF47.5593075968482
asI94732
(lp876
F-122.3512250730703
aF47.65079784156879
aF-122.35045459102268
aF47.6506816707646
asI32173
(lp877
F-122.32347931768177
aF47.61302298418072
aF-122.32344255632752
aF47.61402691652585
asI94736
(lp878
F-122.39845375356253
aF47.66742687799166
aF-122.39903914908314
aF47.667365073933944
asI53797
(lp879
F-122.3181047107566
aF47.616373609885905
aF-122.31690841522537
aF47.61638257641192
asI53805
(lp880
F-122.33586150568073
aF47.61637960254178
aF-122.33703376946364
aF47.61707277606127
asI53806
(lp881
F-122.33853973639654
aF47.618117781873536
aF-122.33859286313658
aF47.61844707636962
asI53809
(lp882
F-122.32487374565268
aF47.60556051878163
aF-122.32546971979384
aF47.60621197724294
asI53810
(lp883
F-122.33754530915606
aF47.615019573762154
aF-122.33784607812312
aF47.615197625097636
asI37437
(lp884
F-122.32521862533538
aF47.61777685842346
aF-122.32521695728262
aF47.61844929873879
asI37438
(lp885
F-122.32062794510442
aF47.60328552966491
aF-122.3206282813288
aF47.60344829788587
asI12869
(lp886
F-122.33846673057215
aF47.61436497647219
aF-122.3396236444933
aF47.61504911306133
asI12873
(lp887
F-122.30421607072574
aF47.70212811568528
aF-122.30423228752392
aF47.70296111028001
asI12874
(lp888
F-122.32706641329926
aF47.61156567764432
aF-122.32787463767812
aF47.61244964546048
asI12878
(lp889
F-122.39166173949326
aF47.517507981477365
aF-122.39156031841648
aF47.516615477243775
asI62033
(lp890
F-122.35665820723574
aF47.62088584895931
aF-122.35546258750887
aF47.62088099256063
asI62034
(lp891
F-122.3565064010944
aF47.65278630619099
aF-122.35560153739402
aF47.652583249507764
asI12885
(lp892
F-122.31734176260831
aF47.66317349002518
aF-122.31644288549512
aF47.663168452951226
asI12886
(lp893
F-122.354066442501
aF47.620848593382775
aF-122.35283539888643
aF47.62084424608418
asI46257
(lp894
F-122.33641004116983
aF47.59228605285525
aF-122.33610418788328
aF47.59228615412511
asI94847
(lp895
F-122.35705275784078
aF47.63358041041668
aF-122.35828493788235
aF47.633580735027884
asI46258
(lp896
F-122.34780798165792
aF47.61423934964423
aF-122.34865884699131
aF47.614742537268484
asI62093
(lp897
F-122.3408381781358
aF47.60878065342296
aF-122.34187713781341
aF47.609393528579005
asI62097
(lp898
F-122.339044770534
aF47.60456928754375
aF-122.33962099827578
aF47.605153261072196
asI62098
(lp899
F-122.30724207001106
aF47.72838986215094
aF-122.30613229834928
aF47.728380247618176
asI119444
(lp900
F-122.3249902303451
aF47.599281120379885
aF-122.32387498771512
aF47.59927927428806
asI12949
(lp901
F-122.34222434927827
aF47.626322505068046
aF-122.34221760813725
aF47.627081938841485
asI12950
(lp902
F-122.35106740158461
aF47.655444589126944
aF-122.35059580426649
aF47.65544341070532
asI12953
(lp903
F-122.32671823830223
aF47.615272257044566
aF-122.32670404126614
aF47.61622916849694
asI12954
(lp904
F-122.35550980617171
aF47.63913472709549
aF-122.35550514678022
aF47.63954042309219
asI12957
(lp905
F-122.33247127489702
aF47.60239334900257
aF-122.33152201173783
aF47.60278946889751
asI55409
(lp906
F-122.348737287835
aF47.61713043733289
aF-122.34802463805819
aF47.6176815860943
asI54001
(lp907
F-122.32617159185553
aF47.60697874544126
aF-122.32676685765948
aF47.6076291222914
asI54002
(lp908
F-122.34961996919293
aF47.61644745155278
aF-122.34887553223496
aF47.61702349351775
asI54005
(lp909
F-122.34141522937269
aF47.60686108919847
aF-122.34167041406573
aF47.60708811705084
asI54006
(lp910
F-122.34130686688295
aF47.60699572301429
aF-122.34151333898258
aF47.60717941329425
asI54009
(lp911
F-122.32518275345424
aF47.59412475934175
aF-122.32468767008652
aF47.59336319456251
asI13057
(lp912
F-122.33407573527809
aF47.59998115755985
aF-122.33407836418492
aF47.599267531948705
asI13058
(lp913
F-122.33219236367677
aF47.601780475184505
aF-122.33262767955755
aF47.60225718355748
asI54038
(lp914
F-122.3226797674221
aF47.603396883954666
aF-122.32166667872696
aF47.603820444311644
asI36313
(lp915
F-122.32233037648426
aF47.5974456945738
aF-122.32233340231386
aF47.596721783211564
asI13082
(lp916
F-122.38556606598016
aF47.560980144742146
aF-122.38561391053459
aF47.5593315799279
asI13085
(lp917
F-122.33968800070724
aF47.61963611630628
aF-122.3384942421655
aF47.61963152845032
asI13086
(lp918
F-122.32364088312069
aF47.59912827032503
aF-122.32364425776274
aF47.59836328040787
asI13093
(lp919
F-122.35388864406578
aF47.61442627133757
aF-122.35320443199565
aF47.614961989772944
asI13097
(lp920
F-122.3266369924016
aF47.61961828956442
aF-122.32664289769016
aF47.620663439911844
asI13098
(lp921
F-122.31342016722724
aF47.653564719747635
aF-122.31337545289807
aF47.65530275523707
asI13101
(lp922
F-122.35951386538216
aF47.677743536407185
aF-122.3604195412733
aF47.67774228194674
asI13102
(lp923
F-122.34528645327354
aF47.610882966955565
aF-122.34492300301923
aF47.611164245563025
asI13105
(lp924
F-122.35927619017887
aF47.631353155532146
aF-122.35926553237077
aF47.63228203907268
asI13109
(lp925
F-122.36054936900864
aF47.63238543887
aF-122.36096686488591
aF47.63238686550595
asI13110
(lp926
F-122.32669210334802
aF47.617770852388055
aF-122.32666030451729
aF47.618357204533474
asI54073
(lp927
F-122.3442322391357
aF47.61326497098809
aF-122.34344446882454
aF47.6138742755575
asI54074
(lp928
F-122.31460427473408
aF47.57867411506448
aF-122.31340961152499
aF47.57866912916775
asI13121
(lp929
F-122.3529433582953
aF47.619817947663634
aF-122.3529342951419
aF47.620911828977746
asI13125
(lp930
F-122.32538324704169
aF47.62202686639819
aF-122.32538870777387
aF47.62310469061804
asI13126
(lp931
F-122.32129266875482
aF47.58633462101553
aF-122.32072520316008
aF47.58633175030968
asI13129
(lp932
F-122.33485972731374
aF47.60166844163326
aF-122.33426740604861
aF47.601667631459094
asI13130
(lp933
F-122.29499405086071
aF47.62420134437813
aF-122.29255142246065
aF47.625853034407235
asI13133
(lp934
F-122.37737811776607
aF47.56283921368456
aF-122.377379026978
aF47.56206004472622
asI13134
(lp935
F-122.32800242609538
aF47.61424031804218
aF-122.32798498311506
aF47.61523086514354
asI13137
(lp936
F-122.35190399315053
aF47.63659629722611
aF-122.3518949608772
aF47.63737242824618
asI13138
(lp937
F-122.32757363681549
aF47.59928524013102
aF-122.32640064311491
aF47.59928329303223
asI13142
(lp938
F-122.32229915731202
aF47.60465358116508
aF-122.32289370786444
aF47.605304291332324
asI70501
(lp939
F-122.33524108824386
aF47.590222059979396
aF-122.33524177514354
aF47.588231457810444
asI7398
(lp940
F-122.33860929680475
aF47.62210334574092
aF-122.33860083022421
aF47.62315365375651
asI78702
(lp941
F-122.37693716174515
aF47.517452270136765
aF-122.37815710744013
aF47.51745318444546
asI78705
(lp942
F-122.35269083004884
aF47.62464654736685
aF-122.35157593759408
aF47.62464417396265
asI13170
(lp943
F-122.3297661640608
aF47.61454179588773
aF-122.33057357534489
aF47.6154250254698
asI13185
(lp944
F-122.33540461974661
aF47.59836519038449
aF-122.33428797755407
aF47.598363170974864
asI13189
(lp945
F-122.32175125125075
aF47.613049418852114
aF-122.32086855254569
aF47.61303380327975
asI13190
(lp946
F-122.34986464651503
aF47.64966077596326
aF-122.34993880067813
aF47.6503741012825
asI13197
(lp947
F-122.352679608929
aF47.66217383946065
aF-122.35267413787003
aF47.6628403811908
asI13198
(lp948
F-122.33543984020352
aF47.59913841056293
aF-122.33423269575874
aF47.599136368143434
asI45973
(lp949
F-122.33703846364908
aF47.6172414961899
aF-122.3380752648174
aF47.61782959389787
asI45974
(lp950
F-122.31775169522962
aF47.601745672946784
aF-122.31871580725903
aF47.602677420500896
asI13209
(lp951
F-122.31336461768392
aF47.65540660112749
aF-122.31335171844243
aF47.65589846438073
asI13210
(lp952
F-122.31319437001274
aF47.655399096034685
aF-122.31318071656197
aF47.655919651435795
asI13213
(lp953
F-122.3346941437868
aF47.60819039944255
aF-122.33374608989025
aF47.60858745800274
asI13214
(lp954
F-122.30625345447295
aF47.609995283039765
aF-122.30507438765468
aF47.60999183435872
asI37821
(lp955
F-122.33904537954028
aF47.609262847176936
aF-122.33989668139004
aF47.610193224106816
asI37822
(lp956
F-122.34804873756703
aF47.617891978319285
aF-122.34772546237203
aF47.61814173818739
asI13293
(lp957
F-122.33536473455186
aF47.59821981895261
aF-122.3343168739078
aF47.59821792392036
asI13294
(lp958
F-122.32087884624138
aF47.60961630068598
aF-122.32121831725445
aF47.609988266192964
asI13297
(lp959
F-122.38936306064026
aF47.562897059320065
aF-122.38812546788924
aF47.56123481403562
asI13298
(lp960
F-122.32510753417414
aF47.73062861718481
aF-122.32512264988779
aF47.73070019718152
asI13301
(lp961
F-122.34263444128527
aF47.61117202413172
aF-122.3418464375748
aF47.611781314443014
asI13302
(lp962
F-122.33636868740665
aF47.59028454381765
aF-122.33650374001645
aF47.589869254667825
asI13305
(lp963
F-122.32558171610718
aF47.608214671789185
aF-122.32456370843718
aF47.60864073708495
asI62458
(lp964
F-122.32067418651476
aF47.61400514158609
aF-122.31944971453304
aF47.61401385941947
asI13309
(lp965
F-122.34609168583064
aF47.6179169386498
aF-122.34535293472696
aF47.61846601430905
asI13313
(lp966
F-122.35438935303108
aF47.65147623977503
aF-122.35438591002817
aF47.65216116688447
asI46082
(lp967
F-122.32599784476784
aF47.712216718884136
aF-122.32477327082921
aF47.71220994049321
asI11778
(lp968
F-122.38157789542944
aF47.55931643069836
aF-122.38267418231321
aF47.55931694427976
asI77317
(lp969
F-122.33051610348977
aF47.62315709327533
aF-122.33052512411263
aF47.624235413696375
asI13345
(lp970
F-122.38673403856451
aF47.55927696589068
aF-122.38678497794214
aF47.55752363178137
asI13346
(lp971
F-122.3430140486156
aF47.61257743742776
aF-122.3441716629969
aF47.61326208017496
asI13349
(lp972
F-122.32573518486517
aF47.618533690068176
aF-122.32548900247377
aF47.61883132607729
asI13353
(lp973
F-122.34444461467177
aF47.61811888242993
aF-122.3438794814752
aF47.618556397337144
asI70725
(lp974
F-122.32497606164134
aF47.612409444765234
aF-122.32538350512348
aF47.61287886527947
asI70726
(lp975
F-122.32436602803061
aF47.60674410272848
aF-122.32496087693856
aF47.60739493007396
asI70730
(lp976
F-122.34709423002728
aF47.61180584784969
aF-122.34806378456607
aF47.61202982465819
asI70734
(lp977
F-122.3350715444647
aF47.6052525437539
aF-122.33562410747173
aF47.605856638364735
asI81421
(lp978
F-122.33617254423618
aF47.61311468589736
aF-122.3352248006283
aF47.613512366513014
asI78929
(lp979
F-122.33410704890716
aF47.61416034878186
aF-122.33402351035117
aF47.61427457294942
asI70738
(lp980
F-122.35554959330459
aF47.63595519432133
aF-122.35554409840479
aF47.636492469738656
asI78933
(lp981
F-122.34262410301571
aF47.61469976283315
aF-122.34184471176457
aF47.61530262247263
asI78934
(lp982
F-122.3882097303235
aF47.562900217991995
aF-122.3882117951481
aF47.56116541299563
asI78937
(lp983
F-122.33142610089186
aF47.616274199413475
aF-122.3306884110395
aF47.616844420251155
asI70746
(lp984
F-122.34174048056701
aF47.61182971590355
aF-122.34289738206398
aF47.61251390400246
asI70749
(lp985
F-122.32921784216956
aF47.60868295776494
aF-122.32981332699796
aF47.60933389792591
asI70750
(lp986
F-122.31435096828929
aF47.66134619898189
aF-122.31430755017101
aF47.66300192590452
asI70753
(lp987
F-122.31831720520235
aF47.61878836684999
aF-122.31833459449332
aF47.619882676683595
asI70754
(lp988
F-122.34617392988241
aF47.61862004147267
aF-122.34616457722726
aF47.61969302803318
asI70757
(lp989
F-122.38485085363791
aF47.66873593429711
aF-122.38484820002233
aF47.66943793669546
asI70758
(lp990
F-122.34977923064818
aF47.616574200056
aF-122.34906138096724
aF47.617129670117656
asI70762
(lp991
F-122.31563893504618
aF47.65627985982081
aF-122.31562438238015
aF47.65683299802624
asI43197
(lp992
F-122.33344231993007
aF47.61628085731742
aF-122.33270568341042
aF47.61685047588433
asI43198
(lp993
F-122.30942883179273
aF47.69490426639595
aF-122.30688449446339
aF47.6948857896238
asI13445
(lp994
F-122.34702119114588
aF47.61612724297104
aF-122.34781935265848
aF47.61659907785605
asI54409
(lp995
F-122.34049940216453
aF47.618131776497805
aF-122.34004206627017
aF47.61848606606166
asI54410
(lp996
F-122.30159177442553
aF47.69666519360524
aF-122.30159973682716
aF47.697500650472215
asI78701
(lp997
F-122.33018723678298
aF47.60082479518599
aF-122.33025534906066
aF47.60001258286568
asI46245
(lp998
F-122.33545238561632
aF47.603970651878306
aF-122.33452516466564
aF47.60435870436513
asI46246
(lp999
F-122.32092144719945
aF47.61530828741121
aF-122.32093870928233
aF47.616399704273924
asI46250
(lp1000
F-122.33994932416007
aF47.608886373390604
aF-122.34080048614341
aF47.60981683750752
asI79021
(lp1001
F-122.34488101883616
aF47.61981171384303
aF-122.34392473799453
aF47.61980821046236
asI79022
(lp1002
F-122.3231262840041
aF47.62317254009826
aF-122.32310935740689
aF47.624234632816695
asI79025
(lp1003
F-122.34982013997237
aF47.61522524377204
aF-122.35067210141752
aF47.61572917505611
asI54450
(lp1004
F-122.38666758911762
aF47.561006431818946
aF-122.38671641065582
aF47.55932598754671
asI79029
(lp1005
F-122.31827008809549
aF47.61532744105855
aF-122.31828768953382
aF47.61641886545271
asI79030
(lp1006
F-122.33294340754404
aF47.61459281140634
aF-122.33305778294796
aF47.614751443114805
asI79033
(lp1007
F-122.32230231063929
aF47.621082585304535
aF-122.3221146315831
aF47.621491555089406
asI79034
(lp1008
F-122.33233098513192
aF47.60724893396324
aF-122.33137671888852
aF47.60764806642495
asI79037
(lp1009
F-122.33225006456965
aF47.61973791757625
aF-122.33177575195505
aF47.61973916722515
asI79041
(lp1010
F-122.34745582154069
aF47.65021935594659
aF-122.34742589156356
aF47.6509505642453
asI79042
(lp1011
F-122.32809661065647
aF47.604279431172756
aF-122.32714968868504
aF47.60467595288634
asI13509
(lp1012
F-122.33666186745235
aF47.60359951072528
aF-122.33725666414537
aF47.60424952638757
asI13510
(lp1013
F-122.33922261935368
aF47.60782089213476
aF-122.34005202512813
aF47.608727663042174
asI13513
(lp1014
F-122.33939278707638
aF47.60636021555698
aF-122.34024461604567
aF47.60729074562231
asI13514
(lp1015
F-122.35607196919715
aF47.61774044231757
aF-122.35669633480455
aF47.61810847272437
asI13517
(lp1016
F-122.34206247037737
aF47.60966237601046
aF-122.34173564819488
aF47.60990547238534
asI13518
(lp1017
F-122.32618837788148
aF47.612932299216155
aF-122.32556691065473
aF47.61293385816697
asI13521
(lp1018
F-122.34191885753077
aF47.615240816122295
aF-122.34308495013657
aF47.61592963720963
asI70866
(lp1019
F-122.32208418631396
aF47.62111395243745
aF-122.32100147687751
aF47.62112169511789
asI87253
(lp1020
F-122.32673236058602
aF47.615154631921456
aF-122.32622361873017
aF47.61515149645143
asI87254
(lp1021
F-122.31415397264291
aF47.663041492402186
aF-122.31319158668452
aF47.66303483695486
asI87257
(lp1022
F-122.379012903045
aF47.66764270576918
aF-122.38019338469185
aF47.66864362526183
asI87258
(lp1023
F-122.37635247738716
aF47.66858788394322
aF-122.37881566401505
aF47.66859153273486
asI13545
(lp1024
F-122.33772514492348
aF47.61415795973054
aF-122.33783163519027
aF47.6146775280928
asI13546
(lp1025
F-122.3374467399292
aF47.61395788826743
aF-122.33762699405017
aF47.614837366517875
asI13549
(lp1026
F-122.33859253783088
aF47.619759306253805
aF-122.33858360964477
aF47.62079928379074
asI13550
(lp1027
F-122.3005121063488
aF47.73021969599365
aF-122.29925104295857
aF47.73020871384893
asI54513
(lp1028
F-122.34052527915652
aF47.632465567340574
aF-122.34047451651354
aF47.632501333699004
asI87282
(lp1029
F-122.32175253580682
aF47.60007895339194
aF-122.319167088498
aF47.60007458511765
asI54517
(lp1030
F-122.34780039034266
aF47.61658026470131
aF-122.34707986603368
aF47.61713773463862
asI54518
(lp1031
F-122.32069293507489
aF47.61518122816779
aF-122.32001936030687
aF47.61518600069206
asI21765
(lp1032
F-122.33546667712817
aF47.59998316958391
aF-122.33430643597883
aF47.59998136353045
asI21766
(lp1033
F-122.3355262807242
aF47.6008091224422
aF-122.33426664740182
aF47.6008065939986
asI13578
(lp1034
F-122.32612783475619
aF47.61777661796869
aF-122.32559958701378
aF47.6184166862808
asI21773
(lp1035
F-122.33018708025222
aF47.60094554934884
aF-122.32919679826342
aF47.60094428048875
asI21774
(lp1036
F-122.33017936358156
aF47.60081394776226
aF-122.32898294460476
aF47.6008124134827
asI54561
(lp1037
F-122.3437902854795
aF47.61537620366629
aF-122.34300266830711
aF47.61598471923927
asI54562
(lp1038
F-122.32777710745583
aF47.60729005494116
aF-122.32835079584275
aF47.60791757958858
asI120102
(lp1039
F-122.3296930741989
aF47.609332555939616
aF-122.32867514852785
aF47.60975819326532
asI120105
(lp1040
F-122.35703235165961
aF47.63590107248721
aF-122.35826339125201
aF47.635900970571264
asI46409
(lp1041
F-122.38804564121106
aF47.56471069912883
aF-122.38804762599273
aF47.56297677945457
asI46410
(lp1042
F-122.32398275250709
aF47.62433819947784
aF-122.32309428571672
aF47.624320184724304
asI54606
(lp1043
F-122.31825529353709
aF47.61414558545076
aF-122.31827260275678
aF47.61523167919727
asI54609
(lp1044
F-122.32180727680402
aF47.61081095547054
aF-122.32240165407761
aF47.61146233843692
asI54610
(lp1045
F-122.35666122465095
aF47.62100100578509
aF-122.35551407345714
aF47.62099634664872
asI120166
(lp1046
F-122.32203566135263
aF47.612931038836976
aF-122.32180395962823
aF47.6129269416904
asI120175
(lp1047
F-122.38953637034851
aF47.56117690282994
aF-122.39077953946665
aF47.56118054882309
asI46457
(lp1048
F-122.33776497488941
aF47.61649395243773
aF-122.33702943917422
aF47.61706337109743
asI46458
(lp1049
F-122.36167674380806
aF47.55575708476507
aF-122.36175348039393
aF47.5556921701833
asI120203
(lp1050
F-122.33499167202258
aF47.605149193733624
aF-122.33404303157354
aF47.6055461766036
asI54669
(lp1051
F-122.32315019215277
aF47.598731543449304
aF-122.32314953576429
aF47.598385644848996
asI120206
(lp1052
F-122.33544530415108
aF47.6017951060313
aF-122.33538652466562
aF47.60220535132618
asI54673
(lp1053
F-122.34486395002638
aF47.618617975182744
aF-122.34486482973783
aF47.61971358702097
asI30101
(lp1054
F-122.38805310177055
aF47.6384955305712
aF-122.38756660333632
aF47.63914534560334
asI30102
(lp1055
F-122.3290328262153
aF47.61198345065053
aF-122.32801470484672
aF47.61241018908994
asI56901
(lp1056
F-122.32865335735438
aF47.60992177937583
aF-122.3292485949456
aF47.6105726491286
asI120225
(lp1057
F-122.33847897022412
aF47.61226772462647
aF-122.33852716780379
aF47.61229625387692
asI120228
(lp1058
F-122.37756644130782
aF47.55931528484429
aF-122.37879713807914
aF47.55930542884418
asI56902
(lp1059
F-122.34439777199505
aF47.69207510365182
aF-122.34440064772424
aF47.69231711530028
asI120240
(lp1060
F-122.32069850910901
aF47.61531263503043
aF-122.32071576625279
aF47.61640405175481
asI81482
(lp1061
F-122.32409980250317
aF47.62317677309847
aF-122.32410603458437
aF47.62425421258197
asI54722
(lp1062
F-122.32888152179653
aF47.59230656021772
aF-122.32888398779434
aF47.5915319893084
asI54725
(lp1063
F-122.32926075575577
aF47.61971468987493
aF-122.32926710996676
aF47.6207235840508
asI54729
(lp1064
F-122.33882943795197
aF47.61074731060588
aF-122.33949938532865
aF47.61147968672349
asI54730
(lp1065
F-122.31766206542397
aF47.65979437111646
aF-122.31669931684151
aF47.65978267763161
asI54733
(lp1066
F-122.31893507839233
aF47.60265396555951
aF-122.32054299216739
aF47.604223008876026
asI54734
(lp1067
F-122.32077866040724
aF47.62110947069251
aF-122.3207919940418
aF47.62194793093338
asI54737
(lp1068
F-122.32064536445587
aF47.60808996578814
aF-122.32064721786867
aF47.6091841403335
asI54738
(lp1069
F-122.32382611713126
aF47.59238603391806
aF-122.3235189125054
aF47.59194985619397
asI54741
(lp1070
F-122.33186235410118
aF47.60845409765722
aF-122.33060436945591
aF47.608980791876654
asI13789
(lp1071
F-122.33675649557901
aF47.608735731398134
aF-122.33580856244558
aF47.60913296899723
asI13790
(lp1072
F-122.32237289971194
aF47.611420242715
aF-122.32135569324322
aF47.61184564552886
asI13793
(lp1073
F-122.38550347820889
aF47.56645850115485
aF-122.38550547682144
aF47.56472432665181
asI13794
(lp1074
F-122.32886139795998
aF47.60081788192377
aF-122.32886356989354
aF47.600098767093385
asI13798
(lp1075
F-122.32103430674277
aF47.6231636697793
aF-122.32105126312729
aF47.624229964092734
asI54762
(lp1076
F-122.31684701749862
aF47.60087735107112
aF-122.31638732629477
aF47.6004518473236
asI54765
(lp1077
F-122.32081940148414
aF47.623165231615864
aF-122.32083604916711
aF47.624212387349516
asI54766
(lp1078
F-122.32238998899177
aF47.59591343653288
aF-122.32137510003575
aF47.59591379070805
asI13809
(lp1079
F-122.30054867431541
aF47.72872534720974
aF-122.30076658996559
aF47.72905663826469
asI79354
(lp1080
F-122.3290377438274
aF47.60365359839242
aF-122.32809057292825
aF47.60404984014621
asI79358
(lp1081
F-122.31355910298414
aF47.624289121166264
aF-122.31266298947993
aF47.624285195806515
asI79362
(lp1082
F-122.3228748105103
aF47.60430846596343
aF-122.32238810525705
aF47.60451183820948
asI79365
(lp1083
F-122.3252436286771
aF47.604416398649185
aF-122.32422593265143
aF47.60484208401764
asI79366
(lp1084
F-122.33680405661181
aF47.60256057658543
aF-122.33609635890919
aF47.60285655932765
asI120399
(lp1085
F-122.38288618327904
aF47.560956983788415
aF-122.3840975816556
aF47.56096257468098
asI120403
(lp1086
F-122.32391728000394
aF47.619759769565505
aF-122.32355143998596
aF47.6198523674332
asI76046
(lp1087
F-122.3324179574814
aF47.60734450815577
aF-122.33298126690039
aF47.60796009262902
asI52521
(lp1088
F-122.34703928395558
aF47.616130199901015
aF-122.34630622549734
aF47.61669815128534
asI76050
(lp1089
F-122.32888746248
aF47.600943857846694
aF-122.32769386407506
aF47.60094192349741
asI78781
(lp1090
F-122.34352858994333
aF47.622142507088626
aF-122.3425247041386
aF47.622138590465894
asI78782
(lp1091
F-122.34352999212821
aF47.621978020468966
aF-122.34252610949711
aF47.621974103858605
asI71289
(lp1092
F-122.35694432565882
aF47.63964243250373
aF-122.35817403036059
aF47.639642942354754
asI71290
(lp1093
F-122.3442980255073
aF47.618032321706075
aF-122.34373289201831
aF47.618469835886344
asI76053
(lp1094
F-122.2852348038965
aF47.711920179651905
aF-122.28518761866401
aF47.71365430166271
asI51478
(lp1095
F-122.34345608509886
aF47.619806358562236
aF-122.34254023124475
aF47.61980248822194
asI46726
(lp1096
F-122.33848184686062
aF47.6180969060586
aF-122.33858723802331
aF47.618094581864
asI46729
(lp1097
F-122.32379644395473
aF47.592387724682496
aF-122.32328981821158
aF47.59248437481544
asI46730
(lp1098
F-122.3341295379
aF47.6178654763029
aF-122.33413259084246
aF47.618403005065474
asI63125
(lp1099
F-122.31749338650388
aF47.65325719853261
aF-122.31669112713841
aF47.652695683455555
asI63126
(lp1100
F-122.31426046250793
aF47.65839595956229
aF-122.31321346175469
aF47.65838347262663
asI63130
(lp1101
F-122.33230992593955
aF47.62698424406694
aF-122.33219734782175
aF47.62694638977123
asI9157
(lp1102
F-122.35602257343125
aF47.61790387043026
aF-122.35529445379414
aF47.6184681161308
asI9158
(lp1103
F-122.35584643682606
aF47.61778182817763
aF-122.35511831672727
aF47.61834607275652
asI54953
(lp1104
F-122.34491009571441
aF47.614664241598675
aF-122.34607989784622
aF47.61535522092887
asI54954
(lp1105
F-122.34162594847352
aF47.61526769869705
aF-122.34084064054744
aF47.61587476395094
asI46766
(lp1106
F-122.31947519678592
aF47.60272615384057
aF-122.31947606675303
aF47.60306303924036
asI79558
(lp1107
F-122.33031621619314
aF47.61970426300626
aF-122.33032185342614
aF47.62078217942932
asI54985
(lp1108
F-122.3100868598749
aF47.61757541147666
aF-122.30888967784183
aF47.617571647805015
asI54986
(lp1109
F-122.3496880245094
aF47.617694229827045
aF-122.34890359666817
aF47.61830089186675
asI79566
(lp1110
F-122.30546646936833
aF47.639137698284586
aF-122.30402402636513
aF47.638379931134615
asI79570
(lp1111
F-122.314382802075
aF47.66122406985069
aF-122.3143869907978
aF47.6610857896134
asI9469
(lp1112
F-122.38195564083112
aF47.53834001199409
aF-122.38342435600116
aF47.53886756668771
asI79574
(lp1113
F-122.31690687213906
aF47.60067704493247
aF-122.31649307306594
aF47.60030679097244
asI79578
(lp1114
F-122.31667171775237
aF47.61297649880343
aF-122.31676197174997
aF47.61404637967372
asI40573
(lp1115
F-122.28684804081534
aF47.62990332914831
aF-122.28557539444245
aF47.63076772770907
asI55025
(lp1116
F-122.33037632547935
aF47.62316448786142
aF-122.32920720979742
aF47.62316793613258
asI55026
(lp1117
F-122.32449714569731
aF47.61302221488429
aF-122.32451020561247
aF47.61405587830519
asI79649
(lp1118
F-122.31692461204942
aF47.611570435597855
aF-122.3168816497643
aF47.61282314551348
asI79653
(lp1119
F-122.38223788265122
aF47.66570839292156
aF-122.38311654275824
aF47.666453674194216
asI79654
(lp1120
F-122.33527288579697
aF47.6121203340379
aF-122.33432377375671
aF47.61251679958063
asI79657
(lp1121
F-122.32893783142367
aF47.60684326282586
aF-122.32791303326607
aF47.60727202757212
asI79658
(lp1122
F-122.35811721890255
aF47.62098756459157
aF-122.3581084177913
aF47.622072654472824
asI77122
(lp1123
F-122.3429375947738
aF47.61605168273173
aF-122.3421542814657
aF47.61665725177912
asI79674
(lp1124
F-122.35266993884281
aF47.6246406604183
aF-122.35266377273575
aF47.625381910420344
asI79677
(lp1125
F-122.382855842189
aF47.5593184772787
aF-122.38305492273548
aF47.55934444530663
asI79678
(lp1126
F-122.34974285681228
aF47.616560345686295
aF-122.35053365113966
aF47.61702793500432
asI79681
(lp1127
F-122.32515066876677
aF47.59661436863724
aF-122.32515323758567
aF47.59592294152735
asI2926
(lp1128
F-122.3393367384816
aF47.60544367965295
aF-122.3387477422555
aF47.60569182226475
asI58574
(lp1129
F-122.33835659103885
aF47.588272136469925
aF-122.33902212844738
aF47.58760313659247
asI79741
(lp1130
F-122.38481652805326
aF47.66859621493224
aF-122.38605863684896
aF47.66859742490566
asI79742
(lp1131
F-122.36447747878361
aF47.629636531052896
aF-122.36567368643907
aF47.62964076705878
asI79765
(lp1132
F-122.32202766339022
aF47.648725062790845
aF-122.32122137960224
aF47.649736890493294
asI79766
(lp1133
F-122.35662092229593
aF47.62450589218307
aF-122.35549343727673
aF47.624501809020124
asI79778
(lp1134
F-122.33689849661816
aF47.61715635029006
aF-122.33615148109713
aF47.61773397804597
asI79785
(lp1135
F-122.32515791483063
aF47.595747988840124
aF-122.32516034952764
aF47.59503709690365
asI79786
(lp1136
F-122.35705460328448
aF47.63479213985134
aF-122.35828643810164
aF47.63479230308717
asI79789
(lp1137
F-122.35663035282255
aF47.623344990142115
aF-122.35543423088761
aF47.62334014204374
asI79790
(lp1138
F-122.32499045972396
aF47.59494132841367
aF-122.32499080352486
aF47.59423155615836
asI24222
(lp1139
F-122.3355499275103
aF47.604077783100124
aF-122.33610208069854
aF47.60468146463994
asI62457
(lp1140
F-122.353403497922
aF47.616357081802455
aF-122.3526694388058
aF47.61692557364535
asI13306
(lp1141
F-122.33039562615787
aF47.624231669912774
aF-122.32922400754723
aF47.62423468574254
asI30697
(lp1142
F-122.32323601305593
aF47.61217801636147
aF-122.32383034197136
aF47.61282935185372
asI30698
(lp1143
F-122.33442838172256
aF47.611218360303525
aF-122.3352376533067
aF47.61210300521167
asI31058
(lp1144
F-122.33394371823707
aF47.595706728994344
aF-122.3337379195645
aF47.595692773236806
asI30702
(lp1145
F-122.34723570809908
aF47.61272034457206
aF-122.34644807687746
aF47.6133295509128
asI30705
(lp1146
F-122.33416891045208
aF47.60761718368275
aF-122.3347217250047
aF47.608221003652595
asI30706
(lp1147
F-122.39424114029406
aF47.514840314108895
aF-122.39423277666126
aF47.514761197419446
asI31061
(lp1148
F-122.32627651997345
aF47.59996339594294
aF-122.32508083247808
aF47.59996154437313
asI55638
(lp1149
F-122.33419908558349
aF47.6208750094158
aF-122.33420476996743
aF47.62190691731406
asI79881
(lp1150
F-122.33831896480788
aF47.62446970343126
aF-122.33735015491101
aF47.62446627390744
asI79882
(lp1151
F-122.31699702829636
aF47.615323087688516
aF-122.31701453077045
aF47.616417475457865
asI79885
(lp1152
F-122.32774478710925
aF47.614031155623415
aF-122.32781711366218
aF47.614172101847416
asI79886
(lp1153
F-122.34353408531243
aF47.620963691909424
aF-122.34252653110659
aF47.620957845818516
asI79890
(lp1154
F-122.33181089427967
aF47.62431273478233
aF-122.3318133442745
aF47.62471643673958
asI6166
(lp1155
F-122.30619194425482
aF47.61294460835316
aF-122.30613350625893
aF47.615239428921065
asI31065
(lp1156
F-122.36320422669647
aF47.55531204202028
aF-122.36382143980235
aF47.555315059927196
asI6197
(lp1157
F-122.39615943327271
aF47.66748974152303
aF-122.39817892569434
aF47.667270268550006
asI6198
(lp1158
F-122.3328662750188
aF47.60617649710945
aF-122.333429893704
aF47.60679232334523
asI14397
(lp1159
F-122.3288377702496
aF47.60488090081781
aF-122.32939046005889
aF47.60548470732775
asI14398
(lp1160
F-122.34003441798241
aF47.60608854523631
aF-122.34087371262697
aF47.60702787301365
asI55369
(lp1161
F-122.34255139981919
aF47.61860540706188
aF-122.34254225772246
aF47.61966009638742
asI55370
(lp1162
F-122.32250830605864
aF47.60657946877103
aF-122.32156073242419
aF47.606975826256615
asI55373
(lp1163
F-122.34295054570187
aF47.6107245877005
aF-122.34261850363033
aF47.61097703164968
asI55374
(lp1164
F-122.31020112299177
aF47.606120548828514
aF-122.30899103276195
aF47.60611535288307
asI58381
(lp1165
F-122.35229745495404
aF47.61454798804109
aF-122.35308717357103
aF47.615015689367816
asI55377
(lp1166
F-122.34252304615613
aF47.62327224790132
aF-122.34251388473648
aF47.62431389113376
asI55378
(lp1167
F-122.34219853862653
aF47.6232832463568
aF-122.34218751781529
aF47.62453540529465
asI47213
(lp1168
F-122.30736409608367
aF47.73028238829826
aF-122.30738013756066
aF47.732030318409336
asI47217
(lp1169
F-122.33266590962779
aF47.62602121499214
aF-122.33266777908204
aF47.62665994035102
asI55410
(lp1170
F-122.32494371014015
aF47.60751154844764
aF-122.32392530914154
aF47.607937466598585
asI47225
(lp1171
F-122.31207984427307
aF47.659825664954504
aF-122.31204423291686
aF47.66117769550779
asI80001
(lp1172
F-122.31517874105984
aF47.66304909128708
aF-122.31432347666826
aF47.663043957804206
asI80002
(lp1173
F-122.3392946848767
aF47.651959206737764
aF-122.3387531120639
aF47.65195651069033
asI55429
(lp1174
F-122.33066672635486
aF47.61368715334781
aF-122.33088497526677
aF47.61392561867072
asI55430
(lp1175
F-122.34217961085493
aF47.61326438885771
aF-122.34147706058184
aF47.6138073909491
asI80017
(lp1176
F-122.33161529301105
aF47.62088589668941
aF-122.33047629368414
aF47.62088864877058
asI80021
(lp1177
F-122.34245491396435
aF47.6526590821674
aF-122.34140115329433
aF47.65265184516935
asI55449
(lp1178
F-122.38250186321754
aF47.66684337673738
aF-122.38450910943014
aF47.66854641318581
asI55453
(lp1179
F-122.34239884150384
aF47.60810685219824
aF-122.34251905392048
aF47.60821159540223
asI80030
(lp1180
F-122.35682811005123
aF47.61840072977103
aF-122.35728079162749
aF47.6186675558775
asI55473
(lp1181
F-122.33815460705483
aF47.60829950019493
aF-122.33896296221234
aF47.60918318022562
asI55474
(lp1182
F-122.3293496587965
aF47.617880632384505
aF-122.32928614685733
aF47.617960572376475
asI54305
(lp1183
F-122.30432165304587
aF47.702127178965966
aF-122.30433787153679
aF47.70296017354571
asI24270
(lp1184
F-122.32903626557098
aF47.608630146959854
aF-122.32801866796193
aF47.609055615400315
asI123942
(lp1185
F-122.33147969409566
aF47.61278771714033
aF-122.33211591905805
aF47.613494244410084
asI30969
(lp1186
F-122.34513656326773
aF47.61979143553561
aF-122.34513741065635
aF47.620839246179166
asI30970
(lp1187
F-122.33574368839982
aF47.61646653893825
aF-122.33689920566377
aF47.61714981133467
asI30974
(lp1188
F-122.34374958974192
aF47.65922623895184
aF-122.3437416851618
aF47.65992026315587
asI1578
(lp1189
F-122.38418307742276
aF47.56645532107222
aF-122.38418499083453
aF47.565020450866875
asI70865
(lp1190
F-122.32378281192862
aF47.6079743638935
aF-122.3243354215309
aF47.60857863259465
asI80177
(lp1191
F-122.34231939952566
aF47.60811981044208
aF-122.34203536255355
aF47.60824376103806
asI80185
(lp1192
F-122.32886779658635
aF47.613571877683334
aF-122.32786566009301
aF47.61399171535236
asI80186
(lp1193
F-122.36447803221512
aF47.62956525326357
aF-122.36567423823162
aF47.62956948926365
asI66613
(lp1194
F-122.3011699929331
aF47.73022489234782
aF-122.30062136455045
aF47.73022059754075
asI80193
(lp1195
F-122.33885871841545
aF47.609355531397576
aF-122.3379095706713
aF47.609752519036114
asI80194
(lp1196
F-122.38818363617905
aF47.561097058035806
aF-122.38942785908183
aF47.56110117170142
asI58422
(lp1197
F-122.32419914937415
aF47.61177199368152
aF-122.3247943661414
aF47.61242288564712
asI80198
(lp1198
F-122.34225880005364
aF47.617986447943544
aF-122.34225342354578
aF47.61842089531471
asI14673
(lp1199
F-122.32437064709855
aF47.61416121716393
aF-122.32363696514302
aF47.61416916598889
asI14674
(lp1200
F-122.32543033020606
aF47.614154780292274
aF-122.32448298324965
aF47.61416012355025
asI55637
(lp1201
F-122.32590778968282
aF47.592316446845196
aF-122.32421861150797
aF47.59231554941769
asI14678
(lp1202
F-122.33338331047393
aF47.598227516237785
aF-122.33339657231414
aF47.59527956639125
asI55641
(lp1203
F-122.37751562136091
aF47.56283917673874
aF-122.37869895800428
aF47.56283944150621
asI31066
(lp1204
F-122.3531513646606
aF47.6339767592305
aF-122.35204355342715
aF47.63397499340144
asI80222
(lp1205
F-122.32710812364576
aF47.621945526598154
aF-122.32664147433817
aF47.62194676860006
asI14697
(lp1206
F-122.3257049184593
aF47.68024512021922
aF-122.3247408876241
aF47.68042990765905
asI14698
(lp1207
F-122.33977500502883
aF47.62752958030786
aF-122.3405081357567
aF47.62854195577314
asI53682
(lp1208
F-122.33546831593229
aF47.61064039958242
aF-122.33452019024254
aF47.611037946548414
asI9278
(lp1209
F-122.38805580344766
aF47.562911078985834
aF-122.38805787339909
aF47.561176273992416
asI39293
(lp1210
F-122.32501856323032
aF47.594229035559636
aF-122.32382568664639
aF47.594226538128126
asI80273
(lp1211
F-122.38688129070908
aF47.56106498488539
aF-122.38812497741293
aF47.56109397986847
asI80274
(lp1212
F-122.35666537867296
aF47.61981128636151
aF-122.3566577178487
aF47.62089698769718
asI80277
(lp1213
F-122.35950685602522
aF47.67959678357598
aF-122.36041261530738
aF47.67959597686206
asI80278
(lp1214
F-122.35705281669738
aF47.63348034596683
aF-122.35828499436859
aF47.633480670577406
asI39329
(lp1215
F-122.35443944116946
aF47.65131817743826
aF-122.35197741145278
aF47.65076118704461
asI39330
(lp1216
F-122.31663200926492
aF47.65694094336726
aF-122.3156054414279
aF47.65692856171655
asI39333
(lp1217
F-122.35751509122993
aF47.65194229856937
aF-122.35746110181307
aF47.65189756498841
asI39334
(lp1218
F-122.32734074331162
aF47.6085009549957
aF-122.32639108017563
aF47.608898039982925
asI39337
(lp1219
F-122.31315933727258
aF47.65689617138855
aF-122.31213252943941
aF47.656882949597914
asI39338
(lp1220
F-122.29766870117005
aF47.72106563712107
aF-122.29639324921874
aF47.72105717042073
asI14770
(lp1221
F-122.38286862117069
aF47.561096722053556
aF-122.38408002305425
aF47.56110231312968
asI14677
(lp1222
F-122.31808549821353
aF47.614166113151946
aF-122.31688949087672
aF47.61417466924913
asI76193
(lp1223
F-122.30982557681828
aF47.71218073389138
aF-122.30848047302236
aF47.712165136142744
asI76194
(lp1224
F-122.32224582941703
aF47.60455840317684
aF-122.3212260310603
aF47.60498455303455
asI58445
(lp1225
F-122.33489556849274
aF47.60335580098427
aF-122.33394708247177
aF47.603752477154636
asI76197
(lp1226
F-122.33540848602654
aF47.60180472089483
aF-122.33488402441317
aF47.60180553726288
asI39393
(lp1227
F-122.32615213305789
aF47.61414819257158
aF-122.32558749909343
aF47.614151177712266
asI88546
(lp1228
F-122.31191257205293
aF47.66311890423596
aF-122.31088572234634
aF47.66311145352458
asI76198
(lp1229
F-122.34098868540224
aF47.61977712354593
aF-122.34097924790169
aF47.62087261651443
asI70737
(lp1230
F-122.32081959059845
aF47.62308470644541
aF-122.31991099488253
aF47.62308165031942
asI35241
(lp1231
F-122.31767572074129
aF47.661371306399694
aF-122.31761012199311
aF47.66149876635034
asI35242
(lp1232
F-122.31749752846112
aF47.66138857721334
aF-122.31738170178575
aF47.66167378792258
asI70741
(lp1233
F-122.32434930196779
aF47.614155337554564
aF-122.32436299351367
aF47.61521196740198
asI70742
(lp1234
F-122.33974437812044
aF47.61035501866737
aF-122.34027604151882
aF47.61093603484742
asI12034
(lp1235
F-122.33050475467583
aF47.62086792647921
aF-122.3305098454412
aF47.62191554885509
asI70745
(lp1236
F-122.33579525966411
aF47.62211253839194
aF-122.33446877802712
aF47.62208598406218
asI88629
(lp1237
F-122.35548032739074
aF47.652397139328464
aF-122.35460760156616
aF47.65220073561698
asI88630
(lp1238
F-122.32972877327171
aF47.60943445225058
aF-122.3297415080622
aF47.609492480627104
asI88633
(lp1239
F-122.3840602701157
aF47.55927685347384
aF-122.38410961953106
aF47.55758683206525
asI88634
(lp1240
F-122.32627920712198
aF47.59829612384039
aF-122.3251275154317
aF47.59829442573162
asI39485
(lp1241
F-122.30939380160541
aF47.69763359299598
aF-122.3094261093028
aF47.698467553368324
asI39486
(lp1242
F-122.38553210991336
aF47.562839136959795
aF-122.385534919278
aF47.56114030243644
asI31297
(lp1243
F-122.34528944021028
aF47.61745187815541
aF-122.34610173288426
aF47.61793246943944
asI31301
(lp1244
F-122.33896778912461
aF47.60781797918943
aF-122.33804681891111
aF47.6082029723478
asI31302
(lp1245
F-122.32775173931836
aF47.59835607870395
aF-122.3277562430116
aF47.59751963219936
asI31309
(lp1246
F-122.38636792764454
aF47.66876221343919
aF-122.38751989738132
aF47.668762532438436
asI31310
(lp1247
F-122.32898221435917
aF47.60692838641575
aF-122.32945792341215
aF47.60744826498879
asI31313
(lp1248
F-122.33986996107801
aF47.620917542231574
aF-122.3398621844862
aF47.62196991585735
asI31314
(lp1249
F-122.31558985884682
aF47.62114932140408
aF-122.31474285939782
aF47.62115542644437
asI14949
(lp1250
F-122.32205736717304
aF47.61400352101627
aF-122.32083600605333
aF47.614012214298974
asI14950
(lp1251
F-122.32630118590345
aF47.6009366104448
aF-122.32505412205137
aF47.600934247957106
asI14953
(lp1252
F-122.32631814275163
aF47.60179199439231
aF-122.32252350926433
aF47.60178590234108
asI14954
(lp1253
F-122.3522819075088
aF47.61569188100666
aF-122.35154484425192
aF47.616261914698754
asI58473
(lp1254
F-122.32314236326248
aF47.60727826057251
aF-122.32212557407203
aF47.60770336940891
asI58474
(lp1255
F-122.3604363210247
aF47.63135189367647
aF-122.3604252114953
aF47.63227535927383
asI72325
(lp1256
F-122.33918015850637
aF47.6138344166553
aF-122.33846457786392
aF47.61438768635712
asI72326
(lp1257
F-122.32888150993755
aF47.58816634099872
aF-122.32889171136937
aF47.58623817768997
asI72329
(lp1258
F-122.32922748121705
aF47.58933856968978
aF-122.32923337126225
aF47.588293158638514
asI72330
(lp1259
F-122.32202947665778
aF47.605779986591806
aF-122.32258211765375
aF47.60638443816529
asI72333
(lp1260
F-122.35094611492308
aF47.61823248476664
aF-122.35143709806295
aF47.61852268878993
asI80537
(lp1261
F-122.32776481978479
aF47.59999874494482
aF-122.3277681567414
aF47.59923339469147
asI80538
(lp1262
F-122.31550656594924
aF47.65605263875772
aF-122.31451245904968
aF47.65604205477163
asI80541
(lp1263
F-122.33242527688694
aF47.60734165707568
aF-122.331446981141
aF47.60775084017802
asI80542
(lp1264
F-122.33155930714915
aF47.60474782331053
aF-122.33211169814294
aF47.60535140210218
asI80545
(lp1265
F-122.33404135946509
aF47.61780379838916
aF-122.33329052481515
aF47.61838426587492
asI80550
(lp1266
F-122.37461926065053
aF47.50636161663191
aF-122.37466257644918
aF47.50464058440645
asI80553
(lp1267
F-122.3329112936982
aF47.62317382538978
aF-122.33176728714858
aF47.6231770089616
asI80554
(lp1268
F-122.29766766282617
aF47.72113691195583
aF-122.29639220912445
aF47.72112844524394
asI80569
(lp1269
F-122.37751652505726
aF47.56209307713502
aF-122.3787280995149
aF47.56209358272046
asI80570
(lp1270
F-122.38961649243753
aF47.63609042174766
aF-122.38948548805168
aF47.636246877433095
asI88773
(lp1271
F-122.32992649362039
aF47.586044259437095
aF-122.32911887755492
aF47.586044026079456
asI88774
(lp1272
F-122.37954327238629
aF47.51932504874522
aF-122.38076863860319
aF47.519329945317885
asI80593
(lp1273
F-122.34986778334411
aF47.65269382215948
aF-122.34930758007275
aF47.652692966840235
asI80594
(lp1274
F-122.32758591336318
aF47.598298174436586
aF-122.3264571362196
aF47.59829639587715
asI80597
(lp1275
F-122.31709975562109
aF47.600076936706046
aF-122.31592346947474
aF47.600071205892384
asI80598
(lp1276
F-122.32810247561763
aF47.5327415248116
aF-122.325539897908
aF47.53272205116428
asI56150
(lp1277
F-122.3222092916071
aF47.61413112243247
aF-122.32222707631273
aF47.61521714410064
asI31485
(lp1278
F-122.32915451697643
aF47.60378179604937
aF-122.32972194513371
aF47.60440195811317
asI80638
(lp1279
F-122.31450875967549
aF47.65626887692456
aF-122.31449462020143
aF47.65680694577516
asI31489
(lp1280
F-122.34397696627074
aF47.60850676257759
aF-122.34507556761778
aF47.6091628380535
asI80642
(lp1281
F-122.3490285872511
aF47.61711725580771
aF-122.34983459409723
aF47.61759368457
asI80645
(lp1282
F-122.34221932006984
aF47.62328080180871
aF-122.34114403787953
aF47.62327684543202
asI80646
(lp1283
F-122.38975769077116
aF47.636144433064395
aF-122.389626686674
aF47.63630088891203
asI56073
(lp1284
F-122.33967072052955
aF47.622128021530585
aF-122.33857215946026
aF47.62212391774751
asI56074
(lp1285
F-122.34963672248661
aF47.64962365712639
aF-122.3474226716534
aF47.6492912625995
asI80654
(lp1286
F-122.32396193185016
aF47.62317713739599
aF-122.32396816107628
aF47.62425457688702
asI77613
(lp1287
F-122.38688471221933
aF47.566538430197085
aF-122.38688500845197
aF47.56479423985772
asI80657
(lp1288
F-122.33058531355235
aF47.61693240627786
aF-122.3298504811398
aF47.61749996800627
asI56082
(lp1289
F-122.32937901432146
aF47.627829916077026
aF-122.32939361181174
aF47.62864273153608
asI56085
(lp1290
F-122.35064108316263
aF47.61590719305774
aF-122.34985368224157
aF47.61651658838553
asI58501
(lp1291
F-122.31745887007301
aF47.676583897021395
aF-122.31746801625694
aF47.6772473028128
asI31541
(lp1292
F-122.33723422451047
aF47.60231201696879
aF-122.33777555448697
aF47.60291514697494
asI31542
(lp1293
F-122.3230203480427
aF47.61994299137251
aF-122.3230385648893
aF47.62105774705189
asI64317
(lp1294
F-122.3489110175739
aF47.623375595289694
aF-122.34834403327065
aF47.623204801140844
asI64318
(lp1295
F-122.33586205128213
aF47.60001339190533
aF-122.335860444256
aF47.59930337043581
asI64321
(lp1296
F-122.32647636639314
aF47.64558870483727
aF-122.32593568744949
aF47.64558819219677
asI64322
(lp1297
F-122.32678182681177
aF47.61303188317824
aF-122.32619873006558
aF47.61305538254724
asI56149
(lp1298
F-122.32201469486007
aF47.614132579240724
aF-122.32203247550487
aF47.61521860093926
asI47958
(lp1299
F-122.33443155077659
aF47.61753421615032
aF-122.33443275048248
aF47.61772373881828
asI47961
(lp1300
F-122.35426711340016
aF47.61805478299573
aF-122.3550587024584
aF47.618521575950304
asI47962
(lp1301
F-122.33169935052926
aF47.599981340151
aF-122.33170300012836
aF47.59926655599091
asI47966
(lp1302
F-122.33574789826561
aF47.616475989760396
aF-122.33499809710321
aF47.61705575624185
asI47969
(lp1303
F-122.33289903868527
aF47.62075353745233
aF-122.33172567858846
aF47.6207567713037
asI47970
(lp1304
F-122.3344388987653
aF47.61807750451906
aF-122.33444138053041
aF47.61851407606206
asI80741
(lp1305
F-122.35403121634386
aF47.62538410352416
aF-122.35291486964175
aF47.6253799742134
asI80742
(lp1306
F-122.33026714839237
aF47.60179730834389
aF-122.329806793781
aF47.60197169305532
asI31593
(lp1307
F-122.34092408370768
aF47.62720190554124
aF-122.33989712915869
aF47.62721144061352
asI80746
(lp1308
F-122.35701952516197
aF47.63841311525368
aF-122.35700582636247
aF47.6395526044642
asI36674
(lp1309
F-122.33257412213301
aF47.675991924985475
aF-122.33247358409847
aF47.67615949674938
asI43910
(lp1310
F-122.32756702146295
aF47.6008018805109
aF-122.3263703830185
aF47.600799665496034
asI36678
(lp1311
F-122.32903211806082
aF47.653070093422805
aF-122.32877898195846
aF47.65306854343524
asI56241
(lp1312
F-122.33164090172302
aF47.624321624245006
aF-122.33049717520218
aF47.624324617474336
asI56246
(lp1313
F-122.32206458281388
aF47.607745234307664
aF-122.32118860362036
aF47.60811499488288
asI80829
(lp1314
F-122.3360329163232
aF47.59726967205757
aF-122.33603631893294
aF47.59434912687091
asI80833
(lp1315
F-122.33684772151582
aF47.605490851676706
aF-122.3358312624836
aF47.60591636432838
asI80837
(lp1316
F-122.33132656196554
aF47.60782699475991
aF-122.33030124552907
aF47.60825588540365
asI80841
(lp1317
F-122.35762398230696
aF47.65287867480716
aF-122.35665130745599
aF47.6526571204967
asI80842
(lp1318
F-122.31688535367446
aF47.60926492984463
aF-122.31688477634451
aF47.61035946605425
asI31062
(lp1319
F-122.3855232739799
aF47.56645556079137
aF-122.38637871530763
aF47.566454417189
asI79014
(lp1320
F-122.33774382710017
aF47.60981852230961
aF-122.33856961194503
aF47.61072095049845
asI80878
(lp1321
F-122.33879047917475
aF47.609280921740385
aF-122.33784133227086
aF47.60967790881041
asI80881
(lp1322
F-122.32511971518663
aF47.60943632713669
aF-122.32417088975731
aF47.609833150514994
asI80882
(lp1323
F-122.33865892753562
aF47.60461435764275
aF-122.33805925997643
aF47.60486722349017
asI80889
(lp1324
F-122.32681295087484
aF47.609560140985934
aF-122.325795402738
aF47.609985768286165
asI80890
(lp1325
F-122.32629328073274
aF47.59574120313745
aF-122.32517787788598
aF47.59573955349098
asI80893
(lp1326
F-122.33216159396179
aF47.61353895415158
aF-122.33299557825502
aF47.614450679869506
asI80894
(lp1327
F-122.33834269535147
aF47.6068223053399
aF-122.33917230882756
aF47.60772940382092
asI24405
(lp1328
F-122.33417463074647
aF47.61760905896866
aF-122.33403273863236
aF47.61771882077099
asI48129
(lp1329
F-122.32496370736425
aF47.59994763978129
aF-122.3238359697264
aF47.599945690205665
asI48130
(lp1330
F-122.31070847169651
aF47.576903117896535
aF-122.31015315875285
aF47.577016574931086
asI39945
(lp1331
F-122.33131849166766
aF47.660250377678636
aF-122.3302347279708
aF47.66024572026488
asI39946
(lp1332
F-122.30613684012722
aF47.70486658755839
aF-122.30437718326351
aF47.70485005226858
asI46253
(lp1333
F-122.32306396900269
aF47.607182118479734
aF-122.32204717596609
aF47.60760722124291
asI46254
(lp1334
F-122.3553367982519
aF47.625389002022494
aF-122.3541565670567
aF47.62538457072422
asI56345
(lp1335
F-122.35683107921167
aF47.639650609200736
aF-122.35560173208577
aF47.639650082695454
asI56346
(lp1336
F-122.33177330117611
aF47.60665017632004
aF-122.3308255651248
aF47.60704673824831
asI56349
(lp1337
F-122.35960849957064
aF47.632369544846156
aF-122.3595937420383
aF47.63350408459109
asI56350
(lp1338
F-122.33408716411226
aF47.599147108323244
aF-122.33297152857742
aF47.599145448568294
asI56353
(lp1339
F-122.31834455279721
aF47.66315979341227
aF-122.31833525066611
aF47.66396873448253
asI56354
(lp1340
F-122.32138906003742
aF47.60703372027344
aF-122.32088343382135
aF47.60723878650769
asI56357
(lp1341
F-122.31534272250887
aF47.715842446264396
aF-122.31539905015032
aF47.7175807404258
asI56358
(lp1342
F-122.32202979470067
aF47.61530342539158
aF-122.32204745370386
aF47.61639492160772
asI54449
(lp1343
F-122.32666154975261
aF47.61855763606941
aF-122.32665472444812
aF47.61890998671339
asI56362
(lp1344
F-122.32079760563373
aF47.62194361113321
aF-122.31992885440731
aF47.62193883502454
asI79026
(lp1345
F-122.33229445300394
aF47.61560162933051
aF-122.33153004333663
aF47.616187764014136
asI80945
(lp1346
F-122.31788200606655
aF47.657564352067695
aF-122.31786126619903
aF47.658370244182706
asI80946
(lp1347
F-122.34039617603119
aF47.63358504903168
aF-122.34029689567856
aF47.63407589481758
asI80949
(lp1348
F-122.32758841848576
aF47.59911255012561
aF-122.32641542841681
aF47.59911060318263
asI80950
(lp1349
F-122.3868729046294
aF47.562974511685645
aF-122.38797982492044
aF47.56300319204384
asI80953
(lp1350
F-122.32563904922965
aF47.61527686081133
aF-122.32565232241272
aF47.61632607069707
asI80954
(lp1351
F-122.325424120078
aF47.61527400504053
aF-122.32543738892163
aF47.616323214776024
asI121921
(lp1352
F-122.34244339233034
aF47.62631656355939
aF-122.3424364603189
aF47.62709785181009
asI7246
(lp1353
F-122.31708599217914
aF47.60084456660625
aF-122.31723277453226
aF47.60053284829502
asI7250
(lp1354
F-122.33365489956981
aF47.60866434047821
aF-122.33267226519658
aF47.60907585350956
asI48213
(lp1355
F-122.31692122532414
aF47.61044426095046
aF-122.31692079444626
aF47.6115380915257
asI48214
(lp1356
F-122.38202561675259
aF47.667844922956085
aF-122.38202469875286
aF47.66850902471981
asI7257
(lp1357
F-122.2894749571955
aF47.70839361325598
aF-122.28943137975885
aF47.70950522299695
asI7258
(lp1358
F-122.305824524614
aF47.71757590247056
aF-122.30458595116089
aF47.71756465069483
asI7261
(lp1359
F-122.32440668533975
aF47.59744044711194
aF-122.32397893306666
aF47.5974398952615
asI7262
(lp1360
F-122.31152681166648
aF47.61294415876707
aF-122.31151896931382
aF47.6140712703613
asI7265
(lp1361
F-122.33332384415306
aF47.611693029787084
aF-122.33237559728168
aF47.612089703796286
asI7266
(lp1362
F-122.3308269098274
aF47.60393632113623
aF-122.32987459824939
aF47.60433464186851
asI31849
(lp1363
F-122.3833036942634
aF47.66638799676797
aF-122.3846232566444
aF47.66750789538348
asI31850
(lp1364
F-122.38315753585184
aF47.66648406335384
aF-122.38448406776834
aF47.667609878773035
asI31853
(lp1365
F-122.34748418921035
aF47.61268226054431
aF-122.34867358301797
aF47.61338808188088
asI31854
(lp1366
F-122.34776638267003
aF47.615358651237564
aF-122.34703004340572
aF47.61592891396355
asI31889
(lp1367
F-122.32649120687105
aF47.61965149842612
aF-122.32649710922985
aF47.620696648604785
asI31890
(lp1368
F-122.33311132320424
aF47.603109125326405
aF-122.33366377914257
aF47.603713308210615
asI31893
(lp1369
F-122.31727791463133
aF47.67502856891614
aF-122.31727797364829
aF47.67575007524757
asI31894
(lp1370
F-122.34594821704215
aF47.61548180890672
aF-122.34516122923013
aF47.61609052563097
asI33990
(lp1371
F-122.31257184209694
aF47.63409647732849
aF-122.31195771820693
aF47.63409220640937
asI81065
(lp1372
F-122.37930561636304
aF47.66653987063973
aF-122.38007912505279
aF47.66719585479185
asI81066
(lp1373
F-122.32498041367596
aF47.59662227775957
aF-122.32498325895148
aF47.59585706192757
asI17613
(lp1374
F-122.33012191587807
aF47.608179397762925
aF-122.32911404535288
aF47.60860084787061
asI81105
(lp1375
F-122.3194747084226
aF47.612227858932634
aF-122.3195311462431
aF47.612881548719876
asI9422
(lp1376
F-122.33995041762705
aF47.61026237407073
aF-122.3405246214925
aF47.6108898682988
asI81113
(lp1377
F-122.33633935978251
aF47.617786660374364
aF-122.33737694394289
aF47.6184581820456
asI81114
(lp1378
F-122.32562995470563
aF47.679876066786385
aF-122.32456603222192
aF47.679859672457205
asI81117
(lp1379
F-122.32830164181415
aF47.611023071547194
aF-122.32915251392355
aF47.611952791217696
asI81118
(lp1380
F-122.32499021349169
aF47.598294193461044
aF-122.32449345582826
aF47.598293246646335
asI81121
(lp1381
F-122.32522145962453
aF47.619221359714125
aF-122.32522408584178
aF47.61957742434273
asI81122
(lp1382
F-122.34521080136966
aF47.61269581176895
aF-122.34442280806225
aF47.613305010524684
asI81125
(lp1383
F-122.33058058728845
aF47.609125899198474
aF-122.32983961815322
aF47.60943566453018
asI23782
(lp1384
F-122.35975450178668
aF47.63237041257278
aF-122.35973974743852
aF47.63350495233659
asI17617
(lp1385
F-122.33292275234788
aF47.62306413302671
aF-122.33176662093324
aF47.62306735037505
asI81129
(lp1386
F-122.33416455976062
aF47.623196587958546
aF-122.33413678288922
aF47.623186943660855
asI81130
(lp1387
F-122.35152662468259
aF47.61645292411208
aF-122.35240104602018
aF47.61696888915642
asI1234
(lp1388
F-122.37882393580134
aF47.50638591279833
aF-122.37884837174585
aF47.50472645457737
asI81134
(lp1389
F-122.32639294216175
aF47.6088841958411
aF-122.3269879500387
aF47.60953538000504
asI58622
(lp1390
F-122.35056714592389
aF47.61468159149155
aF-122.34977928102751
aF47.615290382216166
asI13526
(lp1391
F-122.32865929242641
aF47.609922778352924
aF-122.32764154466625
aF47.6103486019534
asI10797
(lp1392
F-122.33890529938505
aF47.61579516825409
aF-122.34012466981174
aF47.61651575215402
asI32017
(lp1393
F-122.34094618098287
aF47.6254719152109
aF-122.33982533710098
aF47.62546755599237
asI32018
(lp1394
F-122.3399514144624
aF47.61859737725799
aF-122.33990265914962
aF47.61965562164908
asI32022
(lp1395
F-122.3323374012342
aF47.6277940563879
aF-122.33101433020184
aF47.628830440937534
asI32026
(lp1396
F-122.34464540296088
aF47.61471500418997
aF-122.34386874818406
aF47.615315575213465
asI32030
(lp1397
F-122.3468114499752
aF47.61479377828653
aF-122.34607399581677
aF47.615363738311586
asI81185
(lp1398
F-122.3212776763803
aF47.59592460898979
aF-122.3201938099857
aF47.5959225674181
asI81190
(lp1399
F-122.34714021374181
aF47.62097421748298
aF-122.34634840684748
aF47.620971447031295
asI10801
(lp1400
F-122.3553292013064
aF47.62333974923539
aF-122.35417721079999
aF47.62333552041141
asI81194
(lp1401
F-122.35951408107796
aF47.67781481488337
aF-122.36041975821124
aF47.67781356042122
asI10802
(lp1402
F-122.32721813899806
aF47.61150224382925
aF-122.32802636496898
aF47.61238621056915
asI81198
(lp1403
F-122.32626410114177
aF47.59997173720118
aF-122.3262670431307
aF47.599255460950985
asI32049
(lp1404
F-122.3370655308119
aF47.6247398037045
aF-122.33595089348943
aF47.6247370590815
asI32053
(lp1405
F-122.33003933481541
aF47.60637587682271
aF-122.33058984250637
aF47.60698108346858
asI81206
(lp1406
F-122.33968319413677
aF47.62096085940355
aF-122.33857805193232
aF47.620956749397244
asI81209
(lp1407
F-122.33344502242413
aF47.6067825702793
aF-122.33250276295183
aF47.60717704861629
asI81210
(lp1408
F-122.33575464313343
aF47.603988928801755
aF-122.33630679775348
aF47.60459260934924
asI23873
(lp1409
F-122.3032731716545
aF47.57667087716056
aF-122.30278475042535
aF47.57666992701775
asI48450
(lp1410
F-122.34087324591916
aF47.609895887758185
aF-122.33995603283164
aF47.61027951799711
asI23881
(lp1411
F-122.33767103804111
aF47.61390513627087
aF-122.33827924787684
aF47.61426499847217
asI56653
(lp1412
F-122.35550531992288
aF47.638332826747856
aF-122.35549842785501
aF47.63905566675751
asI56654
(lp1413
F-122.33579637413237
aF47.6197762026159
aF-122.33441728102376
aF47.61975004732287
asI81242
(lp1414
F-122.33416848267555
aF47.61761078753721
aF-122.33416968142508
aF47.6178003102076
asI81245
(lp1415
F-122.30972985205138
aF47.674797458799006
aF-122.30876937155963
aF47.67480758842335
asI81246
(lp1416
F-122.32820563850133
aF47.611079509004654
aF-122.32718762155692
aF47.611505493174555
asI81249
(lp1417
F-122.33077721885321
aF47.62602622078599
aF-122.33027870287417
aF47.62603070216328
asI56682
(lp1418
F-122.35677677155141
aF47.617280742654664
aF-122.35846811805946
aF47.618517644977395
asI56685
(lp1419
F-122.34390770252865
aF47.61547690332948
aF-122.34506542928074
aF47.616160752024356
asI56686
(lp1420
F-122.34167375116736
aF47.60941549987813
aF-122.34143278132123
aF47.60951750074926
asI56689
(lp1421
F-122.34530570608243
aF47.61745215254191
aF-122.34458943973799
aF47.618006718975735
asI56690
(lp1422
F-122.33589718277877
aF47.590202949503265
aF-122.33512357700774
aF47.59020273964159
asI32121
(lp1423
F-122.33596766088286
aF47.6197229961172
aF-122.3359589953417
aF47.62079575602632
asI32122
(lp1424
F-122.34096651166018
aF47.62093816785821
aF-122.34095695961305
aF47.62203171998964
asI32125
(lp1425
F-122.32555779151208
aF47.61301416590937
aF-122.32557508173001
aF47.613035217834
asI32126
(lp1426
F-122.32107162935844
aF47.624305472755225
aF-122.32106148297366
aF47.62500193537037
asI32129
(lp1427
F-122.33596059832011
aF47.62207274820091
aF-122.33595216533027
aF47.623128658050206
asI32130
(lp1428
F-122.3332154277829
aF47.58618870395699
aF-122.33200361025534
aF47.58625832637381
asI81289
(lp1429
F-122.33814388125309
aF47.60691200360497
aF-122.33721927262846
aF47.60729847628017
asI81290
(lp1430
F-122.33568144133669
aF47.61069090989592
aF-122.33653586816449
aF47.61162453077484
asI81293
(lp1431
F-122.33419594909937
aF47.61973319829577
aF-122.33306027007897
aF47.619730686724196
asI81294
(lp1432
F-122.32425329826681
aF47.60679283122034
aF-122.32484814632201
aF47.60744365915444
asI81297
(lp1433
F-122.32975436423365
aF47.59234215386737
aF-122.32905233548131
aF47.5923450395215
asI81305
(lp1434
F-122.33491532383738
aF47.617144729327514
aF-122.33435926893013
aF47.61757450217849
asI87281
(lp1435
F-122.35265706437055
aF47.616901622908834
aF-122.35389889998396
aF47.61763410136969
asI54514
(lp1436
F-122.32595870728287
aF47.61200237111165
aF-122.3267878935989
aF47.61294076861229
asI32177
(lp1437
F-122.32351782199113
aF47.61529039217276
aF-122.32353901997963
aF47.61634893607824
asI89525
(lp1438
F-122.30602852675139
aF47.61846608319934
aF-122.30482580490485
aF47.618462686899065
asI89526
(lp1439
F-122.3384134098863
aF47.6256440132257
aF-122.33736164251822
aF47.62563970795336
asI81342
(lp1440
F-122.31317198476142
aF47.65625249649032
aF-122.31316011451416
aF47.65670502657028
asI9461
(lp1441
F-122.33570405279502
aF47.624717044601624
aF-122.33569558889857
aF47.625759666863495
asI9462
(lp1442
F-122.32071576626414
aF47.616404061231016
aF-122.32073328720415
aF47.61749817963522
asI24033
(lp1443
F-122.32855216266499
aF47.60981608297454
aF-122.32753441611491
aF47.610241905617876
asI24034
(lp1444
F-122.34034238532377
aF47.637055099992885
aF-122.3403857417275
aF47.637289558476176
asI24037
(lp1445
F-122.335874043769
aF47.59235478390746
aF-122.33562839062283
aF47.59235686946598
asI24038
(lp1446
F-122.32551771410387
aF47.60814473740654
aF-122.32449970727788
aF47.608570802130394
asI24041
(lp1447
F-122.35766159751336
aF47.651907525425834
aF-122.35756619787372
aF47.651828481152045
asI24042
(lp1448
F-122.34486856963002
aF47.62214695756456
aF-122.34382622805973
aF47.62214357068342
asI24045
(lp1449
F-122.34887892973418
aF47.614676011181935
aF-122.34973266188399
aF47.61518079014211
asI24046
(lp1450
F-122.3340794891477
aF47.60011268791972
aF-122.33167038459372
aF47.600109767459486
asI1277
(lp1451
F-122.35839331426976
aF47.63238255594699
aF-122.35913554851065
aF47.63238293029515
asI24049
(lp1452
F-122.3542333068446
aF47.61782749881545
aF-122.35513145282584
aF47.61835712913823
asI24050
(lp1453
F-122.33249770708869
aF47.626014510455825
aF-122.33084696902003
aF47.626042008755704
asI9470
(lp1454
F-122.32074557241714
aF47.618775896972515
aF-122.32076281527782
aF47.61987023446194
asI24057
(lp1455
F-122.3775155775785
aF47.56292690447628
aF-122.37869891621489
aF47.56292716924415
asI24058
(lp1456
F-122.33917300399735
aF47.61188439207822
aF-122.33868605911243
aF47.61226101426304
asI32258
(lp1457
F-122.3206478837461
aF47.60957720535208
aF-122.32064877203699
aF47.61011829413984
asI32262
(lp1458
F-122.32165770142524
aF47.60393041699773
aF-122.32225242736548
aF47.60458155375218
asI9473
(lp1459
F-122.31663151520826
aF47.65680658308206
aF-122.31560495002921
aF47.65679420160231
asI32265
(lp1460
F-122.32198199316575
aF47.62192519160449
aF-122.32097163004123
aF47.621919877577334
asI32266
(lp1461
F-122.32087036291207
aF47.60524042075782
aF-122.32087119016944
aF47.60615243144796
asI1282
(lp1462
F-122.35792610133363
aF47.62465303963281
aF-122.35791973207273
aF47.625709617589656
asI81422
(lp1463
F-122.32344007593156
aF47.612940138688785
aF-122.32220263786174
aF47.61294029782427
asI58629
(lp1464
F-122.33646205335576
aF47.601755916411584
aF-122.33603888041786
aF47.601760219446376
asI32289
(lp1465
F-122.32064734761808
aF47.60926068514952
aF-122.32064779145972
aF47.60952263501953
asI32290
(lp1466
F-122.31415191308567
aF47.66315651336187
aF-122.31412575819095
aF47.66485040856127
asI81453
(lp1467
F-122.3400848445311
aF47.63520354704729
aF-122.34009405215882
aF47.636470612683496
asI81454
(lp1468
F-122.3365945906969
aF47.61580465259221
aF-122.33775920494544
aF47.616494415141965
asI35421
(lp1469
F-122.34100123713216
aF47.61978842126061
aF-122.33980213382408
aF47.61978458192858
asI81477
(lp1470
F-122.34121325444464
aF47.608319315649666
aF-122.34206980900831
aF47.60925319824967
asI81478
(lp1471
F-122.3234175920458
aF47.58817070664914
aF-122.32141962096834
aF47.58817002164125
asI81481
(lp1472
F-122.34618400576349
aF47.61190929478869
aF-122.34740186550479
aF47.61262946598308
asI56906
(lp1473
F-122.33678313705954
aF47.60439927002786
aF-122.33631358395085
aF47.60459587101289
asI56910
(lp1474
F-122.33301945701265
aF47.61483955722255
aF-122.33228410799822
aF47.615410164502755
asI81493
(lp1475
F-122.32922860459935
aF47.596486125421016
aF-122.3292314585077
aF47.5943181580772
asI81494
(lp1476
F-122.33420982393599
aF47.62190248907095
aF-122.33303790463633
aF47.621878430033405
asI81497
(lp1477
F-122.30036176419146
aF47.632280908839434
aF-122.30160436284872
aF47.63354267040771
asI35429
(lp1478
F-122.35060246098227
aF47.61589923239592
aF-122.35145420142597
aF47.61640288900359
asI60006
(lp1479
F-122.31938113376061
aF47.61301094236652
aF-122.31825458398998
aF47.6130034193489
asI81510
(lp1480
F-122.34264927684691
aF47.60790646024248
aF-122.3425594140075
aF47.607995493829456
asI35433
(lp1481
F-122.37117569060324
aF47.51374247886447
aF-122.37179803320599
aF47.513745494929225
asI60010
(lp1482
F-122.31827778178622
aF47.612126445279145
aF-122.31820950972298
aF47.61215489166419
asI43905
(lp1483
F-122.35689047270132
aF47.633559226223255
aF-122.3568770350467
aF47.63469856307589
asI48769
(lp1484
F-122.38200496609906
aF47.538277043592004
aF-122.38345164539687
aF47.53879668350445
asI48770
(lp1485
F-122.3250035270939
aF47.59592022887702
aF-122.32388857040011
aF47.59591848803791
asI58646
(lp1486
F-122.34610084368883
aF47.61557202493798
aF-122.34531385629775
aF47.616180742716345
asI56977
(lp1487
F-122.32539911109413
aF47.6243247822296
aF-122.3254030900648
aF47.62507990519109
asI130708
(lp1488
F-122.31653039346064
aF47.65988747974487
aF-122.3164957302167
aF47.66121434293292
asI35438
(lp1489
F-122.32301726163367
aF47.61212158267954
aF-122.32213685753982
aF47.61249417466833
asI56982
(lp1490
F-122.29844777088981
aF47.66715424292393
aF-122.29682173199404
aF47.6671513146097
asI43906
(lp1491
F-122.34096031864313
aF47.60709807756701
aF-122.34046402720702
aF47.60730233632104
asI32425
(lp1492
F-122.33732246782291
aF47.61505870615763
aF-122.33653525751018
aF47.615667613071196
asI32426
(lp1493
F-122.34102655353628
aF47.621968890672434
aF-122.3398620468901
aF47.62196426816405
asI32429
(lp1494
F-122.34730487453773
aF47.620837716839404
aF-122.34640803453915
aF47.620834579627854
asI32430
(lp1495
F-122.32767056331383
aF47.610307257303496
aF-122.32826571771608
aF47.61095776921755
asI32433
(lp1496
F-122.33594297526125
aF47.623262687287394
aF-122.33593311428997
aF47.62447473949595
asI32434
(lp1497
F-122.32363349618922
aF47.599963337703315
aF-122.32363652672983
aF47.59919795921424
asI57017
(lp1498
F-122.37892435119116
aF47.55922444336809
aF-122.37946978446959
aF47.55921696950597
asI57018
(lp1499
F-122.30628102436057
aF47.587697635028185
aF-122.30629164669008
aF47.58695186733798
asI10869
(lp1500
F-122.30587416398227
aF47.722935108227276
aF-122.30464211058506
aF47.722924159748146
asI10870
(lp1501
F-122.34222671501807
aF47.621973006989606
aF-122.34115781631135
aF47.62196936114536
asI24265
(lp1502
F-122.2935405487415
aF47.57433719416737
aF-122.292499197238
aF47.57469985496935
asI24266
(lp1503
F-122.35797930094728
aF47.61982556750727
aF-122.35797189884822
aF47.62089960594323
asI32461
(lp1504
F-122.34249777272352
aF47.61461420074297
aF-122.34171040128233
aF47.61522323212403
asI32462
(lp1505
F-122.32366863225408
aF47.59841260040996
aF-122.32309830934129
aF47.5984106204706
asI12237
(lp1506
F-122.33417938699965
aF47.61257711124527
aF-122.333165831066
aF47.613000427959655
asI32466
(lp1507
F-122.32615067422107
aF47.614022087888664
aF-122.32558604162483
aF47.61402507302207
asI12238
(lp1508
F-122.31308063385586
aF47.65974745568337
aF-122.31208221706557
aF47.65973546130948
asI32470
(lp1509
F-122.35353709239546
aF47.616245067526904
aF-122.3547237803801
aF47.616945212261264
asI10873
(lp1510
F-122.32064845751466
aF47.60799617504084
aF-122.31940691179842
aF47.607989985982755
asI76410
(lp1511
F-122.33408492355284
aF47.5860406559112
aF-122.33326975877578
aF47.58604022522321
asI11782
(lp1512
F-122.35075726939297
aF47.61577954084482
aF-122.3516090093758
aF47.61628319629538
asI32489
(lp1513
F-122.33285949785986
aF47.604194265527966
aF-122.33342869404228
aF47.604817039654165
asI32490
(lp1514
F-122.3208677977414
aF47.61018370363648
aF-122.32086952729935
aF47.61109508594655
asI130799
(lp1515
F-122.32926619685618
aF47.61857503755908
aF-122.3292728646968
aF47.61970648158164
asI130802
(lp1516
F-122.39024293309892
aF47.52347100115273
aF-122.39264890760998
aF47.5235034482815
asI57077
(lp1517
F-122.3257612339633
aF47.610138439420936
aF-122.32631394011338
aF47.61074281575063
asI81685
(lp1518
F-122.3115936790724
aF47.608072658851505
aF-122.31158678164557
aF47.609167807625624
asI81686
(lp1519
F-122.34250485900154
aF47.608282107948874
aF-122.34217657980041
aF47.608414276485085
asI81693
(lp1520
F-122.32472927509902
aF47.639762685404015
aF-122.32470129965172
aF47.64199188156447
asI81694
(lp1521
F-122.38550812888299
aF47.56097439791189
aF-122.3867191655783
aF47.561006155426064
asI32546
(lp1522
F-122.3291614233469
aF47.603788824992655
aF-122.32821425092837
aF47.60418506777492
asI32550
(lp1523
F-122.33830658728371
aF47.61448879446605
aF-122.33946350185225
aF47.61517293268112
asI81705
(lp1524
F-122.33191456889959
aF47.601776208567145
aF-122.33030504373775
aF47.60177379509833
asI32554
(lp1525
F-122.33569456342326
aF47.60082049066213
aF-122.33564582534213
aF47.60058086780234
asI32557
(lp1526
F-122.34953944351064
aF47.615259340360126
aF-122.34875238011216
aF47.615868767412074
asI32558
(lp1527
F-122.32314464279881
aF47.62203561973874
aF-122.32312746908394
aF47.62309870145232
asI7989
(lp1528
F-122.34094552218974
aF47.62328147942382
aF-122.34093432753828
aF47.62453557719052
asI7990
(lp1529
F-122.33261778711763
aF47.60924711332527
aF-122.33343283830921
aF47.610127802856184
asI7997
(lp1530
F-122.32336615682378
aF47.6153241613166
aF-122.32218974587833
aF47.61531952760609
asI7998
(lp1531
F-122.3187784958611
aF47.6027273622979
aF-122.32038640718321
aF47.60429640782484
asI8001
(lp1532
F-122.34160864268763
aF47.611756946790386
aF-122.34083103709524
aF47.6123580629891
asI8002
(lp1533
F-122.32447766088258
aF47.679856910020874
aF-122.32459981318308
aF47.68046483061687
asI8005
(lp1534
F-122.35139889945295
aF47.62549769941046
aF-122.35028309436291
aF47.62549350895889
asI8006
(lp1535
F-122.35283023828534
aF47.618156390453564
aF-122.35300535919802
aF47.61825993811749
asI76429
(lp1536
F-122.38822448931995
aF47.5611036812364
aF-122.38827481418716
aF47.55938005805492
asI76430
(lp1537
F-122.34603203201725
aF47.61671043267997
aF-122.34531407652986
aF47.617266439062895
asI24406
(lp1538
F-122.28887039537521
aF47.55862734802923
aF-122.28886773026503
aF47.55789626707262
asI24409
(lp1539
F-122.34717781584365
aF47.66364594493618
aF-122.34717327471587
aF47.66423038615093
asI24413
(lp1540
F-122.34553973016438
aF47.614036132001054
aF-122.3448049245043
aF47.614604165225686
asI24417
(lp1541
F-122.32083763119904
aF47.606418483066534
aF-122.32092896781872
aF47.60641727892604
asI87285
(lp1542
F-122.34115679772275
aF47.62545886093235
aF-122.34115033521458
aF47.62619685478812
asI57190
(lp1543
F-122.32878861916161
aF47.60674772987624
aF-122.32777069938467
aF47.60717361566219
asI76433
(lp1544
F-122.33984903400564
aF47.622101128202935
aF-122.33984083867786
aF47.62316788022307
asI57193
(lp1545
F-122.32497378287378
aF47.598286153753946
aF-122.32497689340391
aF47.59752101642218
asI57194
(lp1546
F-122.35045083323324
aF47.613467507499315
aF-122.35124401479762
aF47.613936372734244
asI57197
(lp1547
F-122.31514742809199
aF47.709125456114364
aF-122.31513978812274
aF47.710325156104155
asI57198
(lp1548
F-122.32405771184924
aF47.61851885187946
aF-122.32406376789338
aF47.61962778022649
asI57201
(lp1549
F-122.32545026427108
aF47.61637785464039
aF-122.32546776116084
aF47.61770176831099
asI57202
(lp1550
F-122.3319052192988
aF47.601773838554344
aF-122.3323776034197
aF47.60229114358145
asI24441
(lp1551
F-122.28801228744263
aF47.6931248614418
aF-122.28799599320575
aF47.693774859322055
asI24442
(lp1552
F-122.3166353068591
aF47.65636629033525
aF-122.31661874921724
aF47.65683364634542
asI24449
(lp1553
F-122.31669268486102
aF47.65988941471457
aF-122.31665802575772
aF47.661216277951965
asI8097
(lp1554
F-122.33637680686583
aF47.61165879795751
aF-122.33542761577642
aF47.61205566426336
asI8098
(lp1555
F-122.33442911621434
aF47.60453423722042
aF-122.33341458028687
aF47.6049580677023
asI8101
(lp1556
F-122.38481575332541
aF47.67010647426152
aF-122.38747004002202
aF47.67011026568186
asI8102
(lp1557
F-122.32239270023754
aF47.59926820168669
aF-122.32108253984897
aF47.59927240719701
asI12282
(lp1558
F-122.31329100449581
aF47.65836785728251
aF-122.31325655304194
aF47.6596812221571
asI24553
(lp1559
F-122.34305935468566
aF47.616132513816794
aF-122.3442338612903
aF47.61682462557525
asI24554
(lp1560
F-122.33408474436942
aF47.586196920858654
aF-122.33326957714571
aF47.58619649016937
asI24557
(lp1561
F-122.32218621623397
aF47.607681059305854
aF-122.32278090495245
aF47.60833213805085
asI24558
(lp1562
F-122.31317838683361
aF47.656159846427244
aF-122.31218000202229
aF47.6561512767982
asI24569
(lp1563
F-122.33506669629439
aF47.603277590770254
aF-122.33565064732976
aF47.6039168808794
asI24570
(lp1564
F-122.34875538768367
aF47.623463774024536
aF-122.34830468021926
aF47.62332800584391
as.